MPASM 5.71  /USERS/MREITER/DESKTOP/AER201/BO   3-4-2017  14:13:49         PAGE  1


LOC  OBJECT CODE     LINE SOURCE TEXT
  VALUE

                      00001 #include <p18f4620.inc>
                      00001         LIST
                      00002 
                      00003 ;==========================================================================
                      00004 ; Build date : Nov 17 2016
                      00005 ;  MPASM PIC18F4620 processor include
                      00006 ; 
                      00007 ;  (c) Copyright 1999-2016 Microchip Technology, All rights reserved
                      00008 ;==========================================================================
                      00009 
                      01440         LIST
                      00002 #include <lcd.inc>
  0000                00001     extern      InitLCD,WrtLCD,ClrLCD,ClkLCD,WR_INS,WR_DATA,LCD_L1,LCD_L2,delay5ms,Shift
                      00002 
                      00003 
                      00004 
                      00005 
                      00006 
                      00007 
                      00003 
Warning[205]: Found directive in column 1. (errorlevel)
                      00004 errorlevel -302
Warning[205]: Found directive in column 1. (errorlevel)
                      00005 errorlevel -305
Warning[205]: Found directive in column 1. (errorlevel)
                      00006 errorlevel -205
                      00007 errorlevel -203
                      00008 errorlevel -207
                      00009     
                      00010 ;global labels
                      00011 
  0000                00012 variable _waitknt=0
                      00013 
                      00014 udata_acs 0x60
000060                00015 regaddress res 1
000061                00016 databyte res 1
000062                00017 datachar res 1
000063                00018 tens_digit res 1
000064                00019 ones_digit res 1
000065                00020 convert_buffer res 1
                      00021 
  0000                00022 global write_rtc,read_rtc,rtc_convert,i2c_common_setup, READ_COLOUR_I2C, WRITE_COLOUR_I2C, READ_ARDUINO,
                             INIT_ARDUINO, INIT_RTC
  0000                00023 global regaddress, databyte, datachar, tens_digit, ones_digit, convert_buffer
                      00024  
  0000                00025 extern delay44us
                      00026 
                      00027 i2c_common_check_ack macro err_address ;If bad ACK bit received, goto err_address
                      00028     btfsc   SSPCON2, ACKSTAT
                      00029     goto    err_address
                      00030 endm
                      00031 
                      00032 i2c_common_start macro 
MPASM 5.71  /USERS/MREITER/DESKTOP/AER201/BO   3-4-2017  14:13:49         PAGE  2


LOC  OBJECT CODE     LINE SOURCE TEXT
  VALUE

                      00033     bsf     SSPCON2, SEN
                      00034     btfss   SSPCON1, WCOL       ; NOTE: I CHANGED THIS TO MAKE WORK, IDK Y THO
                      00035     bsf     PIR1, SSPIF
                      00036     btfss   PIR1, SSPIF
                      00037     bra     $-2    
                      00038     bcf     PIR1, SSPIF         ; clear SSPIF interrupt bit
                      00039 endm
                      00040 
                      00041 i2c_common_stop macro
                      00042     bsf     SSPCON2,PEN
                      00043     btfsc   SSPCON2,PEN
                      00044     bra     $-2
                      00045     bcf     PIR1, SSPIF
                      00046 endm
                      00047 
                      00048 i2c_common_repeatedstart macro
                      00049     bsf     SSPCON2,RSEN
                      00050     btfss   PIR1, SSPIF
                      00051     bra     $-2
                      00052 
                      00053     bcf     PIR1, SSPIF ;clear SSPIF interrupt bit
                      00054 endm
                      00055 
                      00056 i2c_common_ack macro
                      00057     bcf     SSPCON2,ACKDT
                      00058     bsf     SSPCON2,ACKEN
                      00059     btfsc   SSPCON2,ACKEN
                      00060     bra     $-2
                      00061 endm
                      00062 
                      00063 i2c_common_nack macro
                      00064     bsf     SSPCON2,ACKDT
                      00065     bsf     SSPCON2,ACKEN
                      00066 
                      00067     _waitl#v(_waitknt)
                      00068     btfsc   SSPCON2,ACKEN
                      00069     goto    _waitl#v(_waitknt)
                      00070     _waitknt    set _waitknt+1
                      00071 endm
                      00072 
                      00073 i2c_common_write macro 
                      00074     btfsc   SSPSTAT, BF
                      00075     bra     $-2
                      00076     movwf   SSPBUF
                      00077     btfss   PIR1, SSPIF
                      00078     bra     $-2
                      00079     bcf     PIR1, SSPIF         ;clear SSPIF interrupt bit
                      00080 endm
                      00081 
                      00082 i2c_common_read macro
                      00083     bsf     SSPCON2,RCEN        ;Begin receiving byte from
                      00084     btfss   PIR1, SSPIF
                      00085     bra     $-2
MPASM 5.71  /USERS/MREITER/DESKTOP/AER201/BO   3-4-2017  14:13:49         PAGE  3


LOC  OBJECT CODE     LINE SOURCE TEXT
  VALUE

                      00086     bcf     PIR1, SSPIF
                      00087     movff   SSPBUF, WREG
                      00088 endm
                      00089 
                      00090 code
                      00091 
000000                00092 i2c_common_setup
000000 0E00           00093     movlw   b'00000000'
000002 6EC7           00094     movwf   SSPSTAT ;set I2C line leves, clear all flags.
                      00095 
000004 0E28           00096     movlw   b'00101000' ;Config SSP for Master Mode I2C
000006 6EC6           00097     movwf   SSPCON1
                      00098     
000008 0E00           00099     movlw   b'00000000'
00000A 6EC5           00100     movwf   SSPCON2
                      00101     
00000C 0E18           00102     movlw   d'24' ;100kHz baud rate: 10000000 osc / [4*100000] -1
00000E 6EC8           00103     movwf   SSPADD ;RTC only supports 100kHz
                      00104 
000010 8AC6           00105     bsf     SSPCON1,SSPEN ;Enable SSP module
                      00106 
000012 96A1           00107     bcf     PIR2, SSPIE
000014 969E           00108     bcf     PIR1, SSPIF
000016 90C7           00109     bcf     SSPSTAT, BF
                      00110     i2c_common_stop ;Ensure the bus is free
000018 84C5               M     bsf     SSPCON2,PEN
00001A B4C5               M     btfsc   SSPCON2,PEN
00001C D???               M     bra     $-2
00001E 969E               M     bcf     PIR1, SSPIF
000020 0012           00111 return
                      00112 
000022                00113 write_rtc
                      00114     i2c_common_start
000022 80C5               M     bsf     SSPCON2, SEN
000024 AEC6               M     btfss   SSPCON1, WCOL       ; NOTE: I CHANGED THIS TO MAKE WORK, IDK Y THO
000026 869E               M     bsf     PIR1, SSPIF
000028 A69E               M     btfss   PIR1, SSPIF
00002A D???               M     bra     $-2    
00002C 969E               M     bcf     PIR1, SSPIF         ; clear SSPIF interrupt bit
                      00115 
00002E 0ED0           00116     movlw   0xd0 ;DS1307 address | WRITE bit
                      00117     i2c_common_write
000030 B0C7               M     btfsc   SSPSTAT, BF
000032 D???               M     bra     $-2
000034 6EC9               M     movwf   SSPBUF
000036 A69E               M     btfss   PIR1, SSPIF
000038 D???               M     bra     $-2
00003A 969E               M     bcf     PIR1, SSPIF         ;clear SSPIF interrupt bit
                      00118     i2c_common_check_ack WR_ERR1_RTC
00003C BCC5               M     btfsc   SSPCON2, ACKSTAT
00003E EF?? F???          M     goto    WR_ERR1_RTC
                      00119 
                      00120     ;Write data to I2C bus (Register Address in RTC)
MPASM 5.71  /USERS/MREITER/DESKTOP/AER201/BO   3-4-2017  14:13:49         PAGE  4


LOC  OBJECT CODE     LINE SOURCE TEXT
  VALUE

000042 C??? FFE8      00121     movff   regaddress, WREG ;Set register pointer in RTC
                      00122     i2c_common_write
000046 B0C7               M     btfsc   SSPSTAT, BF
000048 D???               M     bra     $-2
00004A 6EC9               M     movwf   SSPBUF
00004C A69E               M     btfss   PIR1, SSPIF
00004E D???               M     bra     $-2
000050 969E               M     bcf     PIR1, SSPIF         ;clear SSPIF interrupt bit
                      00123     i2c_common_check_ack WR_ERR2_RTC
000052 BCC5               M     btfsc   SSPCON2, ACKSTAT
000054 EF?? F???          M     goto    WR_ERR2_RTC
                      00124 
                      00125     ;Write data to I2C bus (Data to be placed in RTC register)
000058 C??? FFE8      00126     movff   databyte, WREG ;Write data to register in RTC
                      00127     i2c_common_write
00005C B0C7               M     btfsc   SSPSTAT, BF
00005E D???               M     bra     $-2
000060 6EC9               M     movwf   SSPBUF
000062 A69E               M     btfss   PIR1, SSPIF
000064 D???               M     bra     $-2
000066 969E               M     bcf     PIR1, SSPIF         ;clear SSPIF interrupt bit
                      00128     i2c_common_check_ack WR_ERR3_RTC
000068 BCC5               M     btfsc   SSPCON2, ACKSTAT
00006A EF?? F???          M     goto    WR_ERR3_RTC
                      00129 
00006E EF?? F???      00130     goto    WR_END_RTC
                      00131 
000072                00132     WR_ERR1_RTC
000072 0000           00133         nop
000074 0E01           00134         movlw   b'00000001'
000076 6E89           00135         movwf   LATA    
000078 EF?? F???      00136         goto    WR_END_RTC
                      00137     
00007C                00138     WR_ERR2_RTC
00007C 0000           00139         nop
00007E 0E02           00140         movlw   b'00000010'
000080 6E89           00141         movwf   LATA
000082 808D           00142         bsf     LATE,0
000084 EF?? F???      00143         goto    WR_END_RTC
                      00144         
000088                00145     WR_ERR3_RTC
000088 0000           00146         nop
00008A 0E04           00147         movlw   b'00000100'
00008C 6E89           00148         movwf   LATA
00008E EF?? F???      00149         goto    WR_END_RTC
000092                00150     WR_END_RTC
                      00151         i2c_common_stop ;Release the I2C bus
000092 84C5               M     bsf     SSPCON2,PEN
000094 B4C5               M     btfsc   SSPCON2,PEN
000096 D???               M     bra     $-2
000098 969E               M     bcf     PIR1, SSPIF
00009A 0012           00152 return
                      00153 
MPASM 5.71  /USERS/MREITER/DESKTOP/AER201/BO   3-4-2017  14:13:49         PAGE  5


LOC  OBJECT CODE     LINE SOURCE TEXT
  VALUE

00009C                00154 read_rtc
                      00155     i2c_common_start
00009C 80C5               M     bsf     SSPCON2, SEN
00009E AEC6               M     btfss   SSPCON1, WCOL       ; NOTE: I CHANGED THIS TO MAKE WORK, IDK Y THO
0000A0 869E               M     bsf     PIR1, SSPIF
0000A2 A69E               M     btfss   PIR1, SSPIF
0000A4 D???               M     bra     $-2    
0000A6 969E               M     bcf     PIR1, SSPIF         ; clear SSPIF interrupt bit
                      00156     
0000A8 0ED0           00157     movlw   0xd0                ;DS1307 address | WRITE bit
                      00158     i2c_common_write
0000AA B0C7               M     btfsc   SSPSTAT, BF
0000AC D???               M     bra     $-2
0000AE 6EC9               M     movwf   SSPBUF
0000B0 A69E               M     btfss   PIR1, SSPIF
0000B2 D???               M     bra     $-2
0000B4 969E               M     bcf     PIR1, SSPIF         ;clear SSPIF interrupt bit
                      00159     i2c_common_check_ack RD_ERR1_RTC
0000B6 BCC5               M     btfsc   SSPCON2, ACKSTAT
0000B8 EF?? F???          M     goto    RD_ERR1_RTC
                      00160         
                      00161     ;Write data to I2C bus (Register Address in RTC)
0000BC C??? FFE8      00162     movff   regaddress, WREG    ; Set register pointer in RTC
                      00163     i2c_common_write
0000C0 B0C7               M     btfsc   SSPSTAT, BF
0000C2 D???               M     bra     $-2
0000C4 6EC9               M     movwf   SSPBUF
0000C6 A69E               M     btfss   PIR1, SSPIF
0000C8 D???               M     bra     $-2
0000CA 969E               M     bcf     PIR1, SSPIF         ;clear SSPIF interrupt bit
                      00164     i2c_common_check_ack RD_ERR2_RTC
0000CC BCC5               M     btfsc   SSPCON2, ACKSTAT
0000CE EF?? F???          M     goto    RD_ERR2_RTC
                      00165         
                      00166     ;Re-Select the DS1307 on the bus, in READ mode
                      00167     i2c_common_repeatedstart
0000D2 82C5               M     bsf     SSPCON2,RSEN
0000D4 A69E               M     btfss   PIR1, SSPIF
0000D6 D???               M     bra     $-2
                          M 
0000D8 969E               M     bcf     PIR1, SSPIF ;clear SSPIF interrupt bit
0000DA 0ED1           00168     movlw   0xd1                ; DS1307 address | READ bit
                      00169     i2c_common_write
0000DC B0C7               M     btfsc   SSPSTAT, BF
0000DE D???               M     bra     $-2
0000E0 6EC9               M     movwf   SSPBUF
0000E2 A69E               M     btfss   PIR1, SSPIF
0000E4 D???               M     bra     $-2
0000E6 969E               M     bcf     PIR1, SSPIF         ;clear SSPIF interrupt bit
                      00170     i2c_common_check_ack RD_ERR3_RTC
0000E8 BCC5               M     btfsc   SSPCON2, ACKSTAT
0000EA EF?? F???          M     goto    RD_ERR3_RTC
                      00171     
MPASM 5.71  /USERS/MREITER/DESKTOP/AER201/BO   3-4-2017  14:13:49         PAGE  6


LOC  OBJECT CODE     LINE SOURCE TEXT
  VALUE

                      00172     ;Read data from I2C bus (Contents of Register in RTC)
                      00173     i2c_common_read
0000EE 86C5               M     bsf     SSPCON2,RCEN        ;Begin receiving byte from
0000F0 A69E               M     btfss   PIR1, SSPIF
0000F2 D???               M     bra     $-2
0000F4 969E               M     bcf     PIR1, SSPIF
0000F6 CFC9 FFE8          M     movff   SSPBUF, WREG
0000FA 6E??           00174     movwf   datachar
                      00175     i2c_common_nack             ;Send acknowledgement of data reception
0000FC 8AC5               M     bsf     SSPCON2,ACKDT
0000FE 88C5               M     bsf     SSPCON2,ACKEN
                          M 
000100                    M     _waitl0
000100 B8C5               M     btfsc   SSPCON2,ACKEN
000102 EF?? F???          M     goto    _waitl0
  00000001                M     _waitknt    set _waitknt+1
000106 EF?? F???      00176     goto RD_END_RTC
                      00177 
00010A                00178     RD_ERR1_RTC
00010A 0000           00179         nop
00010C 0E03           00180         movlw   b'00000011'
00010E 6E89           00181         movwf   LATA
000110 EF?? F???      00182         goto    RD_END_RTC
000114                00183     RD_ERR2_RTC
000114 0000           00184         nop
000116 0E07           00185         movlw   b'00000111'
000118 6E89           00186         movwf   LATA
00011A EF?? F???      00187         goto    RD_END_RTC
00011E                00188     RD_ERR3_RTC
00011E 0000           00189         nop
000120 0E0F           00190         movlw   b'00001111'
000122 6E89           00191         movwf   LATA
000124 EF?? F???      00192         goto    RD_END_RTC
000128                00193     RD_END_RTC
                      00194         i2c_common_stop
000128 84C5               M     bsf     SSPCON2,PEN
00012A B4C5               M     btfsc   SSPCON2,PEN
00012C D???               M     bra     $-2
00012E 969E               M     bcf     PIR1, SSPIF
000130 0012           00195 return
                      00196 
000132                00197 rtc_convert
000132 6E??           00198     movwf   convert_buffer      ; B1 = HHHH LLLL
Warning[202]: Argument out of range.  Least significant bits used.
000134 3800           00199     swapf   convert_buffer, WREG; W = LLLL HHHH
000136 0B0F           00200     andlw   0x0f                ; Mask upper four bits 0000 HHHH
000138 0F30           00201     addlw   0x30                ; convert to ASCII
00013A 6E??           00202     movwf   tens_digit          ; saves into 10ths digit
                      00203 
00013C C??? FFE8      00204     movff   convert_buffer, WREG
000140 0B0F           00205     andlw   0x0f                ; w = 0000 LLLL
000142 0F30           00206     addlw   0x30                ; convert to ASCII
000144 6E??           00207     movwf   ones_digit          ; saves into 1s digit
MPASM 5.71  /USERS/MREITER/DESKTOP/AER201/BO   3-4-2017  14:13:49         PAGE  7


LOC  OBJECT CODE     LINE SOURCE TEXT
  VALUE

000146 0012           00208 return
                      00209 
000148                00210 INIT_RTC
                      00211     i2c_common_start
000148 80C5               M     bsf     SSPCON2, SEN
00014A AEC6               M     btfss   SSPCON1, WCOL       ; NOTE: I CHANGED THIS TO MAKE WORK, IDK Y THO
00014C 869E               M     bsf     PIR1, SSPIF
00014E A69E               M     btfss   PIR1, SSPIF
000150 D???               M     bra     $-2    
000152 969E               M     bcf     PIR1, SSPIF         ; clear SSPIF interrupt bit
000154 0ED0           00212     movlw   0xd0
                      00213     i2c_common_write
000156 B0C7               M     btfsc   SSPSTAT, BF
000158 D???               M     bra     $-2
00015A 6EC9               M     movwf   SSPBUF
00015C A69E               M     btfss   PIR1, SSPIF
00015E D???               M     bra     $-2
000160 969E               M     bcf     PIR1, SSPIF         ;clear SSPIF interrupt bit
000162 0E0E           00214     movlw   0x0e
                      00215     i2c_common_write
000164 B0C7               M     btfsc   SSPSTAT, BF
000166 D???               M     bra     $-2
000168 6EC9               M     movwf   SSPBUF
00016A A69E               M     btfss   PIR1, SSPIF
00016C D???               M     bra     $-2
00016E 969E               M     bcf     PIR1, SSPIF         ;clear SSPIF interrupt bit
000170 0E04           00216     movlw   0x04
                      00217     i2c_common_write
000172 B0C7               M     btfsc   SSPSTAT, BF
000174 D???               M     bra     $-2
000176 6EC9               M     movwf   SSPBUF
000178 A69E               M     btfss   PIR1, SSPIF
00017A D???               M     bra     $-2
00017C 969E               M     bcf     PIR1, SSPIF         ;clear SSPIF interrupt bit
                      00218     i2c_common_stop 
00017E 84C5               M     bsf     SSPCON2,PEN
000180 B4C5               M     btfsc   SSPCON2,PEN
000182 D???               M     bra     $-2
000184 969E               M     bcf     PIR1, SSPIF
000186 0012           00219 return
                      00220     
000188                00221 READ_COLOUR_I2C  
                      00222     i2c_common_start
000188 80C5               M     bsf     SSPCON2, SEN
00018A AEC6               M     btfss   SSPCON1, WCOL       ; NOTE: I CHANGED THIS TO MAKE WORK, IDK Y THO
00018C 869E               M     bsf     PIR1, SSPIF
00018E A69E               M     btfss   PIR1, SSPIF
000190 D???               M     bra     $-2    
000192 969E               M     bcf     PIR1, SSPIF         ; clear SSPIF interrupt bit
                      00223     
000194 0E52           00224     movlw   0x52                ; TCS34725 address 0x29 << 1, WRITE bit (+0)
                      00225     i2c_common_write  
000196 B0C7               M     btfsc   SSPSTAT, BF
MPASM 5.71  /USERS/MREITER/DESKTOP/AER201/BO   3-4-2017  14:13:49         PAGE  8


LOC  OBJECT CODE     LINE SOURCE TEXT
  VALUE

000198 D???               M     bra     $-2
00019A 6EC9               M     movwf   SSPBUF
00019C A69E               M     btfss   PIR1, SSPIF
00019E D???               M     bra     $-2
0001A0 969E               M     bcf     PIR1, SSPIF         ;clear SSPIF interrupt bit
                      00226     i2c_common_check_ack RD_ERR1
0001A2 BCC5               M     btfsc   SSPCON2, ACKSTAT
0001A4 EF?? F???          M     goto    RD_ERR1
                      00227     
                      00228     ;Write command to I2C bus (Register Address in TCS34725)
0001A8 C??? FFE8      00229     movff   regaddress, WREG
0001AC 0980           00230     iorlw   0x80                ; command bit
                      00231     
                      00232     i2c_common_write
0001AE B0C7               M     btfsc   SSPSTAT, BF
0001B0 D???               M     bra     $-2
0001B2 6EC9               M     movwf   SSPBUF
0001B4 A69E               M     btfss   PIR1, SSPIF
0001B6 D???               M     bra     $-2
0001B8 969E               M     bcf     PIR1, SSPIF         ;clear SSPIF interrupt bit
                      00233     i2c_common_check_ack RD_ERR2
0001BA BCC5               M     btfsc   SSPCON2, ACKSTAT
0001BC EF?? F???          M     goto    RD_ERR2
                      00234     
                      00235     ;Re-Select the TCS34725 on the bus, in READ mode
                      00236     i2c_common_repeatedstart
0001C0 82C5               M     bsf     SSPCON2,RSEN
0001C2 A69E               M     btfss   PIR1, SSPIF
0001C4 D???               M     bra     $-2
                          M 
0001C6 969E               M     bcf     PIR1, SSPIF ;clear SSPIF interrupt bit
0001C8 0E53           00237     movlw   0x53                ; TCS34725 address 0x29 << 1, READ bit (+1)
                      00238     i2c_common_write
0001CA B0C7               M     btfsc   SSPSTAT, BF
0001CC D???               M     bra     $-2
0001CE 6EC9               M     movwf   SSPBUF
0001D0 A69E               M     btfss   PIR1, SSPIF
0001D2 D???               M     bra     $-2
0001D4 969E               M     bcf     PIR1, SSPIF         ;clear SSPIF interrupt bit
                      00239     i2c_common_check_ack RD_ERR3
0001D6 BCC5               M     btfsc   SSPCON2, ACKSTAT
0001D8 EF?? F???          M     goto    RD_ERR3
                      00240     
                      00241     ;Read data from I2C bus (Contents of Register in TCS34725)
                      00242     i2c_common_read
0001DC 86C5               M     bsf     SSPCON2,RCEN        ;Begin receiving byte from
0001DE A69E               M     btfss   PIR1, SSPIF
0001E0 D???               M     bra     $-2
0001E2 969E               M     bcf     PIR1, SSPIF
0001E4 CFC9 FFE8          M     movff   SSPBUF, WREG
0001E8 6E??           00243     movwf   databyte
                      00244     i2c_common_nack             ; Send acknowledgement of data reception
0001EA 8AC5               M     bsf     SSPCON2,ACKDT
MPASM 5.71  /USERS/MREITER/DESKTOP/AER201/BO   3-4-2017  14:13:49         PAGE  9


LOC  OBJECT CODE     LINE SOURCE TEXT
  VALUE

0001EC 88C5               M     bsf     SSPCON2,ACKEN
                          M 
0001EE                    M     _waitl1
0001EE B8C5               M     btfsc   SSPCON2,ACKEN
0001F0 EF?? F???          M     goto    _waitl1
  00000002                M     _waitknt    set _waitknt+1
                      00245     
0001F4 EF?? F???      00246     goto RD_END
                      00247 
0001F8                00248     RD_ERR1
0001F8 0000           00249         nop
0001FA 0E03           00250         movlw   b'00000011'
0001FC 6E89           00251         movwf   LATA
0001FE EF?? F???      00252         goto    RD_END
000202                00253     RD_ERR2
000202 0000           00254         nop
000204 0E05           00255         movlw   b'00000101'
000206 6E89           00256         movwf   LATA
000208 EF?? F???      00257         goto    RD_END
00020C                00258     RD_ERR3
00020C 0000           00259         nop
00020E 0E07           00260         movlw   b'00000111'
000210 6E89           00261         movwf   LATA
000212 EF?? F???      00262         goto    RD_END
000216                00263     RD_END
                      00264         i2c_common_stop
000216 84C5               M     bsf     SSPCON2,PEN
000218 B4C5               M     btfsc   SSPCON2,PEN
00021A D???               M     bra     $-2
00021C 969E               M     bcf     PIR1, SSPIF
00021E 0012           00265 return  
                      00266         
000220                00267 WRITE_COLOUR_I2C
                      00268     i2c_common_start
000220 80C5               M     bsf     SSPCON2, SEN
000222 AEC6               M     btfss   SSPCON1, WCOL       ; NOTE: I CHANGED THIS TO MAKE WORK, IDK Y THO
000224 869E               M     bsf     PIR1, SSPIF
000226 A69E               M     btfss   PIR1, SSPIF
000228 D???               M     bra     $-2    
00022A 969E               M     bcf     PIR1, SSPIF         ; clear SSPIF interrupt bit
                      00269 
00022C 0E52           00270     movlw   0x52                ; TCS34725 address | WRITE bit
                      00271     i2c_common_write
00022E B0C7               M     btfsc   SSPSTAT, BF
000230 D???               M     bra     $-2
000232 6EC9               M     movwf   SSPBUF
000234 A69E               M     btfss   PIR1, SSPIF
000236 D???               M     bra     $-2
000238 969E               M     bcf     PIR1, SSPIF         ;clear SSPIF interrupt bit
                      00272     i2c_common_check_ack WR_ERR1
00023A BCC5               M     btfsc   SSPCON2, ACKSTAT
00023C EF?? F???          M     goto    WR_ERR1
                      00273 
MPASM 5.71  /USERS/MREITER/DESKTOP/AER201/BO   3-4-2017  14:13:49         PAGE 10


LOC  OBJECT CODE     LINE SOURCE TEXT
  VALUE

                      00274     ;Write data to I2C bus (Register Address in TCS34725)
000240 C??? FFE8      00275     movff   regaddress, WREG
000244 0980           00276     iorlw   0x80                ; command bits
                      00277     i2c_common_write
000246 B0C7               M     btfsc   SSPSTAT, BF
000248 D???               M     bra     $-2
00024A 6EC9               M     movwf   SSPBUF
00024C A69E               M     btfss   PIR1, SSPIF
00024E D???               M     bra     $-2
000250 969E               M     bcf     PIR1, SSPIF         ;clear SSPIF interrupt bit
                      00278     i2c_common_check_ack WR_ERR2
000252 BCC5               M     btfsc   SSPCON2, ACKSTAT
000254 EF?? F???          M     goto    WR_ERR2
                      00279 
                      00280     ;Write data to I2C bus (Data to be placed in TCS34725 register)
000258 C??? FFE8      00281     movff   databyte, WREG
00025C 0BFF           00282     andlw   0xff
                      00283     i2c_common_write
00025E B0C7               M     btfsc   SSPSTAT, BF
000260 D???               M     bra     $-2
000262 6EC9               M     movwf   SSPBUF
000264 A69E               M     btfss   PIR1, SSPIF
000266 D???               M     bra     $-2
000268 969E               M     bcf     PIR1, SSPIF         ;clear SSPIF interrupt bit
                      00284     i2c_common_check_ack WR_ERR3
00026A BCC5               M     btfsc   SSPCON2, ACKSTAT
00026C EF?? F???          M     goto    WR_ERR3
                      00285 
000270 EF?? F???      00286     goto    WR_END
                      00287 
000274                00288     WR_ERR1
000274 0000           00289         nop
000276 0E0D           00290         movlw   b'00001101'
000278 6E89           00291         movwf   LATA    
00027A EF?? F???      00292         goto    WR_END
                      00293     
00027E                00294     WR_ERR2
00027E 0000           00295         nop
000280 0E0F           00296         movlw   b'00001111'
000282 6E89           00297         movwf   LATA
000284 808D           00298         bsf     LATE,0
000286 EF?? F???      00299         goto    WR_END
                      00300         
00028A                00301     WR_ERR3
00028A 0000           00302         nop
00028C 0E09           00303         movlw   b'00001001'
00028E 6E89           00304         movwf   LATA
000290 EF?? F???      00305         goto    WR_END
000294                00306     WR_END
                      00307         i2c_common_stop         ; Release the I2C bus
000294 84C5               M     bsf     SSPCON2,PEN
000296 B4C5               M     btfsc   SSPCON2,PEN
000298 D???               M     bra     $-2
MPASM 5.71  /USERS/MREITER/DESKTOP/AER201/BO   3-4-2017  14:13:49         PAGE 11


LOC  OBJECT CODE     LINE SOURCE TEXT
  VALUE

00029A 969E               M     bcf     PIR1, SSPIF
                      00308         
00029C 0012           00309 return
                      00310 
00029E                00311 INIT_ARDUINO
                      00312     i2c_common_start
00029E 80C5               M     bsf     SSPCON2, SEN
0002A0 AEC6               M     btfss   SSPCON1, WCOL       ; NOTE: I CHANGED THIS TO MAKE WORK, IDK Y THO
0002A2 869E               M     bsf     PIR1, SSPIF
0002A4 A69E               M     btfss   PIR1, SSPIF
0002A6 D???               M     bra     $-2    
0002A8 969E               M     bcf     PIR1, SSPIF         ; clear SSPIF interrupt bit
                      00313     
0002AA 0E10           00314     movlw   0x10                ; Arudino address << 1 + WRITE
                      00315     i2c_common_write
0002AC B0C7               M     btfsc   SSPSTAT, BF
0002AE D???               M     bra     $-2
0002B0 6EC9               M     movwf   SSPBUF
0002B2 A69E               M     btfss   PIR1, SSPIF
0002B4 D???               M     bra     $-2
0002B6 969E               M     bcf     PIR1, SSPIF         ;clear SSPIF interrupt bit
                      00316     i2c_common_check_ack WR_ERR1
0002B8 BCC5               M     btfsc   SSPCON2, ACKSTAT
0002BA EF?? F???          M     goto    WR_ERR1
                      00317 
                      00318     i2c_common_stop
0002BE 84C5               M     bsf     SSPCON2,PEN
0002C0 B4C5               M     btfsc   SSPCON2,PEN
0002C2 D???               M     bra     $-2
0002C4 969E               M     bcf     PIR1, SSPIF
0002C6 0012           00319 return
                      00320         
                      00321         
0002C8                00322 READ_ARDUINO
                      00323     i2c_common_start
0002C8 80C5               M     bsf     SSPCON2, SEN
0002CA AEC6               M     btfss   SSPCON1, WCOL       ; NOTE: I CHANGED THIS TO MAKE WORK, IDK Y THO
0002CC 869E               M     bsf     PIR1, SSPIF
0002CE A69E               M     btfss   PIR1, SSPIF
0002D0 D???               M     bra     $-2    
0002D2 969E               M     bcf     PIR1, SSPIF         ; clear SSPIF interrupt bit
                      00324 
                      00325     i2c_common_repeatedstart
0002D4 82C5               M     bsf     SSPCON2,RSEN
0002D6 A69E               M     btfss   PIR1, SSPIF
0002D8 D???               M     bra     $-2
                          M 
0002DA 969E               M     bcf     PIR1, SSPIF ;clear SSPIF interrupt bit
0002DC 0E11           00326     movlw   0x11                ; Arudino address << 1 + READ
                      00327     i2c_common_write
0002DE B0C7               M     btfsc   SSPSTAT, BF
0002E0 D???               M     bra     $-2
0002E2 6EC9               M     movwf   SSPBUF
MPASM 5.71  /USERS/MREITER/DESKTOP/AER201/BO   3-4-2017  14:13:49         PAGE 12


LOC  OBJECT CODE     LINE SOURCE TEXT
  VALUE

0002E4 A69E               M     btfss   PIR1, SSPIF
0002E6 D???               M     bra     $-2
0002E8 969E               M     bcf     PIR1, SSPIF         ;clear SSPIF interrupt bit
                      00328     
                      00329     i2c_common_read
0002EA 86C5               M     bsf     SSPCON2,RCEN        ;Begin receiving byte from
0002EC A69E               M     btfss   PIR1, SSPIF
0002EE D???               M     bra     $-2
0002F0 969E               M     bcf     PIR1, SSPIF
0002F2 CFC9 FFE8          M     movff   SSPBUF, WREG
                      00330     i2c_common_nack
0002F6 8AC5               M     bsf     SSPCON2,ACKDT
0002F8 88C5               M     bsf     SSPCON2,ACKEN
                          M 
0002FA                    M     _waitl2
0002FA B8C5               M     btfsc   SSPCON2,ACKEN
0002FC EF?? F???          M     goto    _waitl2
  00000003                M     _waitknt    set _waitknt+1
                      00331     
                      00332     i2c_common_stop
000300 84C5               M     bsf     SSPCON2,PEN
000302 B4C5               M     btfsc   SSPCON2,PEN
000304 D???               M     bra     $-2
000306 969E               M     bcf     PIR1, SSPIF
                      00333     
000308 0012           00334 return
                      00335 
                      00336     end
MPASM 5.71  /USERS/MREITER/DESKTOP/AER201/BO   3-4-2017  14:13:49         PAGE 13


SYMBOL TABLE
  LABEL                             VALUE 

A                                 00000000
ABDEN                             00000000
ABDOVF                            00000007
ACCESS                            00000000
ACKDT                             00000005
ACKEN                             00000004
ACKSTAT                           00000006
ACQT0                             00000003
ACQT1                             00000004
ACQT2                             00000005
ADCON0                            00000FC2
ADCON1                            00000FC1
ADCON2                            00000FC0
ADCS0                             00000000
ADCS1                             00000001
ADCS2                             00000002
ADDEN                             00000003
ADEN                              00000003
ADFM                              00000007
ADIE                              00000006
ADIF                              00000006
ADIP                              00000006
ADON                              00000000
ADRES                             00000FC3
ADRESH                            00000FC4
ADRESL                            00000FC3
AN10                              00000001
AN11                              00000004
AN12                              00000000
AN4                               00000005
AN5                               00000000
AN6                               00000001
AN7                               00000002
AN8                               00000002
AN9                               00000003
BANKED                            00000001
BAUDCON                           00000FB8
BAUDCTL                           00000FB8
BCLIE                             00000003
BCLIF                             00000003
BCLIP                             00000003
BF                                00000000
BGST                              00000005
BOR                               00000000
BRG16                             00000003
BRGH                              00000002
BSR                               00000FE0
C                                 00000000
C1INV                             00000004
C1OUT                             00000006
C2INV                             00000005
C2OUT                             00000007
CCP1                              00000002
MPASM 5.71  /USERS/MREITER/DESKTOP/AER201/BO   3-4-2017  14:13:49         PAGE 14


SYMBOL TABLE
  LABEL                             VALUE 

CCP1CON                           00000FBD
CCP1IE                            00000002
CCP1IF                            00000002
CCP1IP                            00000002
CCP1M0                            00000000
CCP1M1                            00000001
CCP1M2                            00000002
CCP1M3                            00000003
CCP1X                             00000005
CCP1Y                             00000004
CCP2CON                           00000FBA
CCP2IE                            00000000
CCP2IF                            00000000
CCP2IP                            00000000
CCP2M0                            00000000
CCP2M1                            00000001
CCP2M2                            00000002
CCP2M3                            00000003
CCP2X                             00000005
CCP2Y                             00000004
CCP2_PORTB                        00000003
CCP2_PORTC                        00000001
CCPR1                             00000FBE
CCPR1H                            00000FBF
CCPR1L                            00000FBE
CCPR2                             00000FBB
CCPR2H                            00000FBC
CCPR2L                            00000FBB
CFGS                              00000006
CHS0                              00000002
CHS1                              00000003
CHS2                              00000004
CHS3                              00000005
CIS                               00000003
CK                                00000006
CKE                               00000006
CKP                               00000004
CM0                               00000000
CM1                               00000001
CM2                               00000002
CMCON                             00000FB4
CMIE                              00000006
CMIF                              00000006
CMIP                              00000006
CREN                              00000004
CS                                00000002
CSRC                              00000007
CVR0                              00000000
CVR1                              00000001
CVR2                              00000002
CVR3                              00000003
CVRCON                            00000FB5
CVREN                             00000007
MPASM 5.71  /USERS/MREITER/DESKTOP/AER201/BO   3-4-2017  14:13:49         PAGE 15


SYMBOL TABLE
  LABEL                             VALUE 

CVROE                             00000006
CVRR                              00000005
CVRSS                             00000004
ClkLCD                            00000000
ClrLCD                            00000000
D                                 00000005
DC                                00000001
DC1B0                             00000004
DC1B1                             00000005
DC2B0                             00000004
DC2B1                             00000005
DDRA                              TRISA
DDRB                              TRISB
DDRC                              TRISC
DDRD                              TRISD
DDRE                              TRISE
DONE                              00000001
D_A                               00000005
D_NOT_A                           00000005
ECCP1AS                           00000FB6
ECCPAS0                           00000004
ECCPAS1                           00000005
ECCPAS2                           00000006
ECCPASE                           00000007
EEADR                             00000FA9
EEADRH                            00000FAA
EECON1                            00000FA6
EECON2                            00000FA7
EEDATA                            00000FA8
EEIE                              00000004
EEIF                              00000004
EEIP                              00000004
EEPGD                             00000007
FAST                              00000001
FERR                              00000002
FREE                              00000004
FSR0                              00000000
FSR0H                             00000FEA
FSR0L                             00000FE9
FSR1                              00000001
FSR1H                             00000FE2
FSR1L                             00000FE1
FSR2                              00000002
FSR2H                             00000FDA
FSR2L                             00000FD9
GCEN                              00000007
GIE                               00000007
GIEH                              00000007
GIEL                              00000006
GIE_GIEH                          00000007
GO                                00000001
GO_DONE                           00000001
GO_NOT_DONE                       00000001
MPASM 5.71  /USERS/MREITER/DESKTOP/AER201/BO   3-4-2017  14:13:49         PAGE 16


SYMBOL TABLE
  LABEL                             VALUE 

HLVDCON                           00000FD2
HLVDEN                            00000004
HLVDIE                            00000002
HLVDIF                            00000002
HLVDIN                            00000005
HLVDIP                            00000002
HLVDL0                            00000000
HLVDL1                            00000001
HLVDL2                            00000002
HLVDL3                            00000003
IBF                               00000007
IBOV                              00000005
IDLEN                             00000007
INDF0                             00000FEF
INDF1                             00000FE7
INDF2                             00000FDF
INIT_ARDUINO                      0000029E
INIT_RTC                          00000148
INT0                              00000000
INT0E                             00000004
INT0F                             00000001
INT0IE                            00000004
INT0IF                            00000001
INT1                              00000001
INT1E                             00000003
INT1F                             00000000
INT1IE                            00000003
INT1IF                            00000000
INT1IP                            00000006
INT1P                             00000006
INT2                              00000002
INT2E                             00000004
INT2F                             00000001
INT2IE                            00000004
INT2IF                            00000001
INT2IP                            00000007
INT2P                             00000007
INTCON                            00000FF2
INTCON2                           00000FF1
INTCON3                           00000FF0
INTEDG0                           00000006
INTEDG1                           00000005
INTEDG2                           00000004
INTSRC                            00000007
IOFS                              00000002
IPEN                              00000007
IPR1                              00000F9F
IPR2                              00000FA2
IRCF0                             00000004
IRCF1                             00000005
IRCF2                             00000006
IRVST                             00000005
IVRST                             00000005
MPASM 5.71  /USERS/MREITER/DESKTOP/AER201/BO   3-4-2017  14:13:49         PAGE 17


SYMBOL TABLE
  LABEL                             VALUE 

InitLCD                           00000000
KBI0                              00000004
KBI1                              00000005
KBI2                              00000006
KBI3                              00000007
LATA                              00000F89
LATA0                             00000000
LATA1                             00000001
LATA2                             00000002
LATA3                             00000003
LATA4                             00000004
LATA5                             00000005
LATA6                             00000006
LATA7                             00000007
LATB                              00000F8A
LATB0                             00000000
LATB1                             00000001
LATB2                             00000002
LATB3                             00000003
LATB4                             00000004
LATB5                             00000005
LATB6                             00000006
LATB7                             00000007
LATC                              00000F8B
LATC0                             00000000
LATC1                             00000001
LATC2                             00000002
LATC3                             00000003
LATC4                             00000004
LATC5                             00000005
LATC6                             00000006
LATC7                             00000007
LATD                              00000F8C
LATD0                             00000000
LATD1                             00000001
LATD2                             00000002
LATD3                             00000003
LATD4                             00000004
LATD5                             00000005
LATD6                             00000006
LATD7                             00000007
LATE                              00000F8D
LATE0                             00000000
LATE1                             00000001
LATE2                             00000002
LCD_L1                            00000000
LCD_L2                            00000000
LVDCON                            00000FD2
LVDEN                             00000004
LVDIE                             00000002
LVDIF                             00000002
LVDIN                             00000005
LVDIP                             00000002
MPASM 5.71  /USERS/MREITER/DESKTOP/AER201/BO   3-4-2017  14:13:49         PAGE 18


SYMBOL TABLE
  LABEL                             VALUE 

LVDL0                             00000000
LVDL1                             00000001
LVDL2                             00000002
LVDL3                             00000003
LVV0                              00000000
LVV1                              00000001
LVV2                              00000002
LVV3                              00000003
MCLR                              00000003
N                                 00000004
NOT_A                             00000005
NOT_ADDRESS                       00000005
NOT_BOR                           00000000
NOT_CS                            00000002
NOT_DONE                          00000001
NOT_MCLR                          00000003
NOT_PD                            00000002
NOT_POR                           00000001
NOT_RBPU                          00000007
NOT_RD                            00000000
NOT_RI                            00000004
NOT_SS                            00000005
NOT_T1SYNC                        00000002
NOT_T3SYNC                        00000002
NOT_TO                            00000003
NOT_W                             00000002
NOT_WR                            00000001
NOT_WRITE                         00000002
OBF                               00000006
OERR                              00000001
OSCCON                            00000FD3
OSCFIE                            00000007
OSCFIF                            00000007
OSCFIP                            00000007
OSCTUNE                           00000F9B
OSTS                              00000003
OV                                00000003
P                                 00000004
P1B                               00000005
P1C                               00000006
P1D                               00000007
P1M0                              00000006
P1M1                              00000007
PC                                00000FF9
PCFG0                             00000000
PCFG1                             00000001
PCFG2                             00000002
PCFG3                             00000003
PCL                               00000FF9
PCLATH                            00000FFA
PCLATU                            00000FFB
PD                                00000002
PDC0                              00000000
MPASM 5.71  /USERS/MREITER/DESKTOP/AER201/BO   3-4-2017  14:13:49         PAGE 19


SYMBOL TABLE
  LABEL                             VALUE 

PDC1                              00000001
PDC2                              00000002
PDC3                              00000003
PDC4                              00000004
PDC5                              00000005
PDC6                              00000006
PEIE                              00000006
PEIE_GIEL                         00000006
PEN                               00000002
PGC                               00000006
PGD                               00000007
PGM                               00000005
PIE1                              00000F9D
PIE2                              00000FA0
PIR1                              00000F9E
PIR2                              00000FA1
PLLEN                             00000006
PLUSW0                            00000FEB
PLUSW1                            00000FE3
PLUSW2                            00000FDB
POR                               00000001
PORTA                             00000F80
PORTB                             00000F81
PORTC                             00000F82
PORTD                             00000F83
PORTE                             00000F84
POSTDEC0                          00000FED
POSTDEC1                          00000FE5
POSTDEC2                          00000FDD
POSTINC0                          00000FEE
POSTINC1                          00000FE6
POSTINC2                          00000FDE
PR2                               00000FCB
PREINC0                           00000FEC
PREINC1                           00000FE4
PREINC2                           00000FDC
PROD                              00000FF3
PRODH                             00000FF4
PRODL                             00000FF3
PRSEN                             00000007
PSA                               00000003
PSP0                              00000000
PSP1                              00000001
PSP2                              00000002
PSP3                              00000003
PSP4                              00000004
PSP5                              00000005
PSP6                              00000006
PSP7                              00000007
PSPIE                             00000007
PSPIF                             00000007
PSPIP                             00000007
PSPMODE                           00000004
MPASM 5.71  /USERS/MREITER/DESKTOP/AER201/BO   3-4-2017  14:13:49         PAGE 20


SYMBOL TABLE
  LABEL                             VALUE 

PSSAC0                            00000002
PSSAC1                            00000003
PSSBD0                            00000000
PSSBD1                            00000001
PWM1CON                           00000FB7
R                                 00000002
RA0                               00000000
RA1                               00000001
RA2                               00000002
RA3                               00000003
RA4                               00000004
RA5                               00000005
RA6                               00000006
RA7                               00000007
RB0                               00000000
RB1                               00000001
RB2                               00000002
RB3                               00000003
RB4                               00000004
RB5                               00000005
RB6                               00000006
RB7                               00000007
RBIE                              00000003
RBIF                              00000000
RBIP                              00000000
RBPU                              00000007
RC0                               00000000
RC1                               00000001
RC2                               00000002
RC3                               00000003
RC4                               00000004
RC5                               00000005
RC6                               00000006
RC7                               00000007
RCEN                              00000003
RCIDL                             00000006
RCIE                              00000005
RCIF                              00000005
RCIP                              00000005
RCMT                              00000006
RCON                              00000FD0
RCREG                             00000FAE
RCSTA                             00000FAB
RD                                00000000
RD0                               00000000
RD1                               00000001
RD16                              00000007
RD2                               00000002
RD3                               00000003
RD4                               00000004
RD5                               00000005
RD6                               00000006
RD7                               00000007
MPASM 5.71  /USERS/MREITER/DESKTOP/AER201/BO   3-4-2017  14:13:49         PAGE 21


SYMBOL TABLE
  LABEL                             VALUE 

RD_END                            00000216
RD_END_RTC                        00000128
RD_ERR1                           000001F8
RD_ERR1_RTC                       0000010A
RD_ERR2                           00000202
RD_ERR2_RTC                       00000114
RD_ERR3                           0000020C
RD_ERR3_RTC                       0000011E
RE0                               00000000
RE1                               00000001
RE2                               00000002
RE3                               00000003
READ_ARDUINO                      000002C8
READ_COLOUR_I2C                   00000188
RI                                00000004
RSEN                              00000001
RX                                00000007
RX9                               00000006
RX9D                              00000000
RXCKP                             00000005
RXDTP                             00000005
R_NOT_W                           00000002
R_W                               00000002
S                                 00000003
SBOREN                            00000006
SCK                               00000003
SCKP                              00000004
SCL                               00000003
SCS0                              00000000
SCS1                              00000001
SDA                               00000004
SDI                               00000004
SDO                               00000005
SEN                               00000000
SENDB                             00000003
SMP                               00000007
SP0                               00000000
SP1                               00000001
SP2                               00000002
SP3                               00000003
SP4                               00000004
SPBRG                             00000FAF
SPBRGH                            00000FB0
SPEN                              00000007
SREN                              00000005
SS                                00000005
SSPADD                            00000FC8
SSPBUF                            00000FC9
SSPCON1                           00000FC6
SSPCON2                           00000FC5
SSPEN                             00000005
SSPIE                             00000003
SSPIF                             00000003
MPASM 5.71  /USERS/MREITER/DESKTOP/AER201/BO   3-4-2017  14:13:49         PAGE 22


SYMBOL TABLE
  LABEL                             VALUE 

SSPIP                             00000003
SSPM0                             00000000
SSPM1                             00000001
SSPM2                             00000002
SSPM3                             00000003
SSPOV                             00000006
SSPSTAT                           00000FC7
STATUS                            00000FD8
STKFUL                            00000007
STKOVF                            00000007
STKPTR                            00000FFC
STKPTR0                           00000000
STKPTR1                           00000001
STKPTR2                           00000002
STKPTR3                           00000003
STKPTR4                           00000004
STKUNF                            00000006
SWDTE                             00000000
SWDTEN                            00000000
SYNC                              00000004
Shift                             00000000
T016BIT                           00000006
T08BIT                            00000006
T0CKI                             00000004
T0CON                             00000FD5
T0CS                              00000005
T0IE                              00000005
T0IF                              00000002
T0PS0                             00000000
T0PS1                             00000001
T0PS2                             00000002
T0SE                              00000004
T13CKI                            00000000
T1CKI                             00000000
T1CKPS0                           00000004
T1CKPS1                           00000005
T1CON                             00000FCD
T1OSCEN                           00000003
T1OSI                             00000001
T1OSO                             00000000
T1RUN                             00000006
T1SYNC                            00000002
T2CKPS0                           00000000
T2CKPS1                           00000001
T2CON                             00000FCA
T2OUTPS0                          00000003
T2OUTPS1                          00000004
T2OUTPS2                          00000005
T2OUTPS3                          00000006
T3CCP1                            00000003
T3CCP2                            00000006
T3CKPS0                           00000004
T3CKPS1                           00000005
MPASM 5.71  /USERS/MREITER/DESKTOP/AER201/BO   3-4-2017  14:13:49         PAGE 23


SYMBOL TABLE
  LABEL                             VALUE 

T3CON                             00000FB1
T3SYNC                            00000002
TABLAT                            00000FF5
TBLPTR                            00000FF6
TBLPTRH                           00000FF7
TBLPTRL                           00000FF6
TBLPTRU                           00000FF8
TMR0                              00000FD6
TMR0H                             00000FD7
TMR0IE                            00000005
TMR0IF                            00000002
TMR0IP                            00000002
TMR0L                             00000FD6
TMR0ON                            00000007
TMR1                              00000FCE
TMR1CS                            00000001
TMR1H                             00000FCF
TMR1IE                            00000000
TMR1IF                            00000000
TMR1IP                            00000000
TMR1L                             00000FCE
TMR1ON                            00000000
TMR2                              00000FCC
TMR2IE                            00000001
TMR2IF                            00000001
TMR2IP                            00000001
TMR2ON                            00000002
TMR3                              00000FB2
TMR3CS                            00000001
TMR3H                             00000FB3
TMR3IE                            00000001
TMR3IF                            00000001
TMR3IP                            00000001
TMR3L                             00000FB2
TMR3ON                            00000000
TO                                00000003
TOS                               00000FFD
TOSH                              00000FFE
TOSL                              00000FFD
TOSU                              00000FFF
TRISA                             00000F92
TRISA0                            00000000
TRISA1                            00000001
TRISA2                            00000002
TRISA3                            00000003
TRISA4                            00000004
TRISA5                            00000005
TRISA6                            00000006
TRISA7                            00000007
TRISB                             00000F93
TRISB0                            00000000
TRISB1                            00000001
TRISB2                            00000002
MPASM 5.71  /USERS/MREITER/DESKTOP/AER201/BO   3-4-2017  14:13:49         PAGE 24


SYMBOL TABLE
  LABEL                             VALUE 

TRISB3                            00000003
TRISB4                            00000004
TRISB5                            00000005
TRISB6                            00000006
TRISB7                            00000007
TRISC                             00000F94
TRISC0                            00000000
TRISC1                            00000001
TRISC2                            00000002
TRISC3                            00000003
TRISC4                            00000004
TRISC5                            00000005
TRISC6                            00000006
TRISC7                            00000007
TRISD                             00000F95
TRISD0                            00000000
TRISD1                            00000001
TRISD2                            00000002
TRISD3                            00000003
TRISD4                            00000004
TRISD5                            00000005
TRISD6                            00000006
TRISD7                            00000007
TRISE                             00000F96
TRISE0                            00000000
TRISE1                            00000001
TRISE2                            00000002
TRMT                              00000001
TUN0                              00000000
TUN1                              00000001
TUN2                              00000002
TUN3                              00000003
TUN4                              00000004
TX                                00000006
TX9                               00000006
TX9D                              00000000
TXCKP                             00000004
TXEN                              00000005
TXIE                              00000004
TXIF                              00000004
TXIP                              00000004
TXREG                             00000FAD
TXSTA                             00000FAC
UA                                00000001
VCFG0                             00000004
VCFG1                             00000005
VDIRMAG                           00000007
VPP                               00000003
W                                 00000000
WCOL                              00000007
WDTCON                            00000FD1
WR                                00000001
WREG                              00000FE8
MPASM 5.71  /USERS/MREITER/DESKTOP/AER201/BO   3-4-2017  14:13:49         PAGE 25


SYMBOL TABLE
  LABEL                             VALUE 

WREN                              00000002
WRERR                             00000003
WRITE_COLOUR_I2C                  00000220
WR_DATA                           00000000
WR_END                            00000294
WR_END_RTC                        00000092
WR_ERR1                           00000274
WR_ERR1_RTC                       00000072
WR_ERR2                           0000027E
WR_ERR2_RTC                       0000007C
WR_ERR3                           0000028A
WR_ERR3_RTC                       00000088
WR_INS                            00000000
WUE                               00000001
WrtLCD                            00000000
Z                                 00000002
_.code_001C                       0000001C
_.code_002A                       0000002A
_.code_0032                       00000032
_.code_0038                       00000038
_.code_0048                       00000048
_.code_004E                       0000004E
_.code_005E                       0000005E
_.code_0064                       00000064
_.code_0096                       00000096
_.code_00A4                       000000A4
_.code_00AC                       000000AC
_.code_00B2                       000000B2
_.code_00C2                       000000C2
_.code_00C8                       000000C8
_.code_00D6                       000000D6
_.code_00DE                       000000DE
_.code_00E4                       000000E4
_.code_00F2                       000000F2
_.code_012C                       0000012C
_.code_0150                       00000150
_.code_0158                       00000158
_.code_015E                       0000015E
_.code_0166                       00000166
_.code_016C                       0000016C
_.code_0174                       00000174
_.code_017A                       0000017A
_.code_0182                       00000182
_.code_0190                       00000190
_.code_0198                       00000198
_.code_019E                       0000019E
_.code_01B0                       000001B0
_.code_01B6                       000001B6
_.code_01C4                       000001C4
_.code_01CC                       000001CC
_.code_01D2                       000001D2
_.code_01E0                       000001E0
_.code_021A                       0000021A
MPASM 5.71  /USERS/MREITER/DESKTOP/AER201/BO   3-4-2017  14:13:49         PAGE 26


SYMBOL TABLE
  LABEL                             VALUE 

_.code_0228                       00000228
_.code_0230                       00000230
_.code_0236                       00000236
_.code_0248                       00000248
_.code_024E                       0000024E
_.code_0260                       00000260
_.code_0266                       00000266
_.code_0298                       00000298
_.code_02A6                       000002A6
_.code_02AE                       000002AE
_.code_02B4                       000002B4
_.code_02C2                       000002C2
_.code_02D0                       000002D0
_.code_02D8                       000002D8
_.code_02E0                       000002E0
_.code_02E6                       000002E6
_.code_02EE                       000002EE
_.code_0304                       00000304
_BOREN_NOSLP_2L                   000000FD
_BOREN_OFF_2L                     000000F9
_BOREN_ON_2L                      000000FB
_BOREN_SBORDIS_2L                 000000FF
_BORV_0_2L                        000000E7
_BORV_1_2L                        000000EF
_BORV_2_2L                        000000F7
_BORV_3_2L                        000000FF
_CCP2MX_PORTBE_3H                 000000FE
_CCP2MX_PORTC_3H                  000000FF
_CONFIG1H                         00300001
_CONFIG2H                         00300003
_CONFIG2L                         00300002
_CONFIG3H                         00300005
_CONFIG4L                         00300006
_CONFIG5H                         00300009
_CONFIG5L                         00300008
_CONFIG6H                         0030000B
_CONFIG6L                         0030000A
_CONFIG7H                         0030000D
_CONFIG7L                         0030000C
_CP0_OFF_5L                       000000FF
_CP0_ON_5L                        000000FE
_CP1_OFF_5L                       000000FF
_CP1_ON_5L                        000000FD
_CP2_OFF_5L                       000000FF
_CP2_ON_5L                        000000FB
_CP3_OFF_5L                       000000FF
_CP3_ON_5L                        000000F7
_CPB_OFF_5H                       000000FF
_CPB_ON_5H                        000000BF
_CPD_OFF_5H                       000000FF
_CPD_ON_5H                        0000007F
_DEBUG_OFF_4L                     000000FF
_DEBUG_ON_4L                      0000007F
MPASM 5.71  /USERS/MREITER/DESKTOP/AER201/BO   3-4-2017  14:13:49         PAGE 27


SYMBOL TABLE
  LABEL                             VALUE 

_DEVID1                           003FFFFE
_DEVID2                           003FFFFF
_EBTR0_OFF_7L                     000000FF
_EBTR0_ON_7L                      000000FE
_EBTR1_OFF_7L                     000000FF
_EBTR1_ON_7L                      000000FD
_EBTR2_OFF_7L                     000000FF
_EBTR2_ON_7L                      000000FB
_EBTR3_OFF_7L                     000000FF
_EBTR3_ON_7L                      000000F7
_EBTRB_OFF_7H                     000000FF
_EBTRB_ON_7H                      000000BF
_FCMEN_OFF_1H                     000000BF
_FCMEN_ON_1H                      000000FF
_IDLOC0                           00200000
_IDLOC1                           00200001
_IDLOC2                           00200002
_IDLOC3                           00200003
_IDLOC4                           00200004
_IDLOC5                           00200005
_IDLOC6                           00200006
_IDLOC7                           00200007
_IESO_OFF_1H                      0000007F
_IESO_ON_1H                       000000FF
_LPT1OSC_OFF_3H                   000000FB
_LPT1OSC_ON_3H                    000000FF
_LVP_OFF_4L                       000000FB
_LVP_ON_4L                        000000FF
_MCLRE_OFF_3H                     0000007F
_MCLRE_ON_3H                      000000FF
_OSC_ECIO6_1H                     000000F5
_OSC_EC_1H                        000000F4
_OSC_HSPLL_1H                     000000F6
_OSC_HS_1H                        000000F2
_OSC_INTIO67_1H                   000000F8
_OSC_INTIO7_1H                    000000F9
_OSC_LP_1H                        000000F0
_OSC_RCIO6_1H                     000000F7
_OSC_RC_1H                        000000F3
_OSC_XT_1H                        000000F1
_PBADEN_OFF_3H                    000000FD
_PBADEN_ON_3H                     000000FF
_PWRT_OFF_2L                      000000FF
_PWRT_ON_2L                       000000FE
_STVREN_OFF_4L                    000000FE
_STVREN_ON_4L                     000000FF
_WDTPS_1024_2H                    000000F5
_WDTPS_128_2H                     000000EF
_WDTPS_16384_2H                   000000FD
_WDTPS_16_2H                      000000E9
_WDTPS_1_2H                       000000E1
_WDTPS_2048_2H                    000000F7
_WDTPS_256_2H                     000000F1
MPASM 5.71  /USERS/MREITER/DESKTOP/AER201/BO   3-4-2017  14:13:49         PAGE 28


SYMBOL TABLE
  LABEL                             VALUE 

_WDTPS_2_2H                       000000E3
_WDTPS_32768_2H                   000000FF
_WDTPS_32_2H                      000000EB
_WDTPS_4096_2H                    000000F9
_WDTPS_4_2H                       000000E5
_WDTPS_512_2H                     000000F3
_WDTPS_64_2H                      000000ED
_WDTPS_8192_2H                    000000FB
_WDTPS_8_2H                       000000E7
_WDT_OFF_2H                       000000FE
_WDT_ON_2H                        000000FF
_WRT0_OFF_6L                      000000FF
_WRT0_ON_6L                       000000FE
_WRT1_OFF_6L                      000000FF
_WRT1_ON_6L                       000000FD
_WRT2_OFF_6L                      000000FF
_WRT2_ON_6L                       000000FB
_WRT3_OFF_6L                      000000FF
_WRT3_ON_6L                       000000F7
_WRTB_OFF_6H                      000000FF
_WRTB_ON_6H                       000000BF
_WRTC_OFF_6H                      000000FF
_WRTC_ON_6H                       000000DF
_WRTD_OFF_6H                      000000FF
_WRTD_ON_6H                       0000007F
_XINST_OFF_4L                     000000BF
_XINST_ON_4L                      000000FF
__18F4620                         00000001
_waitknt                          00000003
_waitl0                           00000100
_waitl1                           000001EE
_waitl2                           000002FA
convert_buffer                    00000065
databyte                          00000061
datachar                          00000062
delay44us                         00000000
delay5ms                          00000000
i2c_common_ack                    
i2c_common_check_ack              
i2c_common_nack                   
i2c_common_read                   
i2c_common_repeatedstart          
i2c_common_setup                  00000000
i2c_common_start                  
i2c_common_stop                   
i2c_common_write                  
ones_digit                        00000064
read_rtc                          0000009C
regaddress                        00000060
rtc_convert                       00000132
tens_digit                        00000063
write_rtc                         00000022

MPASM 5.71  /USERS/MREITER/DESKTOP/AER201/BO   3-4-2017  14:13:49         PAGE 29





Errors   :     0
Warnings :     4 reported,    47 suppressed
Messages :     0 reported,     0 suppressed

