MPLINK 5.08, LINKER
Linker Map File - Created Mon Feb 27 20:44:48 2017

                                 Section Info
                  Section       Type    Address   Location Size(Bytes)
                ---------  ---------  ---------  ---------  ---------
                   .org_0       code   0x000000    program   0x000004
                   .cinit    romdata   0x000004    program   0x000002
                   .org_1       code   0x000008    program   0x000004
                   .org_2       code   0x000018    program   0x000f62
                    .code       code   0x000f7a    program   0x00059a
.config_300001_BUILD/DEFAULT/PRODUCTION/MAIN.O    romdata   0x300001    program   0x000001
.config_300002_BUILD/DEFAULT/PRODUCTION/MAIN.O    romdata   0x300002    program   0x000001
.config_300003_BUILD/DEFAULT/PRODUCTION/MAIN.O    romdata   0x300003    program   0x000001
.config_300005_BUILD/DEFAULT/PRODUCTION/MAIN.O    romdata   0x300005    program   0x000001
.config_300006_BUILD/DEFAULT/PRODUCTION/MAIN.O    romdata   0x300006    program   0x000001
.config_300008_BUILD/DEFAULT/PRODUCTION/MAIN.O    romdata   0x300008    program   0x000001
.config_300009_BUILD/DEFAULT/PRODUCTION/MAIN.O    romdata   0x300009    program   0x000001
.config_30000A_BUILD/DEFAULT/PRODUCTION/MAIN.O    romdata   0x30000a    program   0x000001
.config_30000B_BUILD/DEFAULT/PRODUCTION/MAIN.O    romdata   0x30000b    program   0x000001
.config_30000C_BUILD/DEFAULT/PRODUCTION/MAIN.O    romdata   0x30000c    program   0x000001
.config_30000D_BUILD/DEFAULT/PRODUCTION/MAIN.O    romdata   0x30000d    program   0x000001
                   .udata      udata   0x000080       data   0x000008



                              Program Memory Usage 
                               Start         End      
                           ---------   ---------      
                            0x000000    0x000005      
                            0x000008    0x00000b      
                            0x000018    0x001513      
                            0x300001    0x300003      
                            0x300005    0x300006      
                            0x300008    0x30000d      
            5393 out of 66584 program addresses used, program memory utilization is 8%



                              Symbols - Sorted by Name
                     Name    Address   Location    Storage File                     
                ---------  ---------  ---------  --------- ---------                
             ARDUINO_INIT   0x000926    program     static /Users/mreiter/Desktop/AER201/botL.X/main.asm
                CHECK_ACK   0x0014a4    program     extern /Users/mreiter/Desktop/AER201/botL.X/i2c.asm
               CHECK_DONE   0x000412    program     static /Users/mreiter/Desktop/AER201/botL.X/main.asm
               CHECK_NACK   0x0014a8    program     extern /Users/mreiter/Desktop/AER201/botL.X/i2c.asm
         COLLECTIONS_STEP   0x000360    program     static /Users/mreiter/Desktop/AER201/botL.X/main.asm
              COLOUR_TEST   0x0002fc    program     static /Users/mreiter/Desktop/AER201/botL.X/main.asm
           ClearEEPROM_21   0x000cc2    program     static /Users/mreiter/Desktop/AER201/botL.X/main.asm
                ClearNext   0x000cca    program     static /Users/mreiter/Desktop/AER201/botL.X/main.asm
                   ClkLCD   0x0010e2    program     extern /Users/mreiter/Desktop/AER201/botL.X/lcd.asm
                   ClrLCD   0x0010d4    program     extern /Users/mreiter/Desktop/AER201/botL.X/lcd.asm
                   Cycles   0x000c5a    program     static /Users/mreiter/Desktop/AER201/botL.X/main.asm
               DETECTIONS   0x00037c    program     static /Users/mreiter/Desktop/AER201/botL.X/main.asm
              DISPLAY_RTC   0x000a52    program     static /Users/mreiter/Desktop/AER201/botL.X/main.asm
                DataUSART   0x000ba8    program     static /Users/mreiter/Desktop/AER201/botL.X/main.asm
               Delay200us   0x000c42    program     static /Users/mreiter/Desktop/AER201/botL.X/main.asm
            Delay44usLoop   0x001128    program     static /Users/mreiter/Desktop/AER201/botL.X/lcd.asm
                Delay50ms   0x000c50    program     static /Users/mreiter/Desktop/AER201/botL.X/main.asm
             Delay5msLoop   0x001138    program     static /Users/mreiter/Desktop/AER201/botL.X/lcd.asm
                 Delay5us   0x000c34    program     static /Users/mreiter/Desktop/AER201/botL.X/main.asm
                DispOpRTC   0x000ea2    program     static /Users/mreiter/Desktop/AER201/botL.X/main.asm
         DispOpRTC_Helper   0x000f40    program     static /Users/mreiter/Desktop/AER201/botL.X/main.asm
               DispOpSort   0x000dca    program     static /Users/mreiter/Desktop/AER201/botL.X/main.asm
           DisplayExeTime   0x000d38    program     static /Users/mreiter/Desktop/AER201/botL.X/main.asm
             END_ISR_HIGH   0x0000cc    program     static /Users/mreiter/Desktop/AER201/botL.X/main.asm
              END_ISR_LOW   0x000102    program     static /Users/mreiter/Desktop/AER201/botL.X/main.asm
                EXECUTION   0x000318    program     static /Users/mreiter/Desktop/AER201/botL.X/main.asm
                 EXIT_EXE   0x000438    program     static /Users/mreiter/Desktop/AER201/botL.X/main.asm
                     Exe1   0x000fd4    program     static /Users/mreiter/Desktop/AER201/botL.X/main.asm
                     Exe2   0x000fe0    program     static /Users/mreiter/Desktop/AER201/botL.X/main.asm
                 HOLD_EXE   0x00041c    program     static /Users/mreiter/Desktop/AER201/botL.X/main.asm
                 HOLD_LOG   0x0005e0    program     static /Users/mreiter/Desktop/AER201/botL.X/main.asm
            HOLD_LOG_INFO   0x00063e    program     static /Users/mreiter/Desktop/AER201/botL.X/main.asm
                  HOLD_PC   0x0008cc    program     static /Users/mreiter/Desktop/AER201/botL.X/main.asm
            HOLD_PERM_LOG   0x000696    program     static /Users/mreiter/Desktop/AER201/botL.X/main.asm
                HOLD_PLOG   0x00080c    program     static /Users/mreiter/Desktop/AER201/botL.X/main.asm
        HOLD_PLOG_DETAILS   0x000868    program     static /Users/mreiter/Desktop/AER201/botL.X/main.asm
             HOLD_STANDBY   0x00020e    program     static /Users/mreiter/Desktop/AER201/botL.X/main.asm
                  HOLD_UP   0x0014f4    program     static /Users/mreiter/Desktop/AER201/botL.X/i2c.asm
                I2C_ACKDT   0x0014a4    program     extern /Users/mreiter/Desktop/AER201/botL.X/i2c.asm
           I2C_Master_ACK   0x00150a    program     extern /Users/mreiter/Desktop/AER201/botL.X/i2c.asm
          I2C_Master_INIT   0x0014b4    program     extern /Users/mreiter/Desktop/AER201/botL.X/i2c.asm
          I2C_Master_READ   0x0014fc    program     extern /Users/mreiter/Desktop/AER201/botL.X/i2c.asm
        I2C_Master_RSTART   0x0014de    program     extern /Users/mreiter/Desktop/AER201/botL.X/i2c.asm
         I2C_Master_START   0x0014d6    program     extern /Users/mreiter/Desktop/AER201/botL.X/i2c.asm
          I2C_Master_STOP   0x0014e6    program     extern /Users/mreiter/Desktop/AER201/botL.X/i2c.asm
          I2C_Master_WAIT   0x0014c6    program     extern /Users/mreiter/Desktop/AER201/botL.X/i2c.asm
         I2C_Master_WRITE   0x0014ee    program     extern /Users/mreiter/Desktop/AER201/botL.X/i2c.asm
                 I2C_temp   0x0014a4    program     static /Users/mreiter/Desktop/AER201/botL.X/i2c.asm
              INC_ESKACAP   0x0003fa    program     static /Users/mreiter/Desktop/AER201/botL.X/main.asm
            INC_ESKANOCAP   0x0003e2    program     static /Users/mreiter/Desktop/AER201/botL.X/main.asm
               INC_YOPCAP   0x0003ca    program     static /Users/mreiter/Desktop/AER201/botL.X/main.asm
             INC_YOPNOCAP   0x0003b0    program     static /Users/mreiter/Desktop/AER201/botL.X/main.asm
                     INIT   0x00010c    program     static /Users/mreiter/Desktop/AER201/botL.X/main.asm
             INIT_ARDUINO   0x00142c    program     extern /Users/mreiter/Desktop/AER201/botL.X/i2c_common.asm
                 INIT_RTC   0x0012ae    program     extern /Users/mreiter/Desktop/AER201/botL.X/i2c_common.asm
               INIT_USART   0x000b94    program     static /Users/mreiter/Desktop/AER201/botL.X/main.asm
                  IR_TEST   0x0002ae    program     static /Users/mreiter/Desktop/AER201/botL.X/main.asm
                 ISR_HIGH   0x00001c    program     static /Users/mreiter/Desktop/AER201/botL.X/main.asm
                  ISR_LOW   0x0000d6    program     static /Users/mreiter/Desktop/AER201/botL.X/main.asm
                  InitLCD   0x001028    program     extern /Users/mreiter/Desktop/AER201/botL.X/lcd.asm
                   LCD_L1   0x0010f4    program     extern /Users/mreiter/Desktop/AER201/botL.X/lcd.asm
                   LCD_L2   0x0010fc    program     extern /Users/mreiter/Desktop/AER201/botL.X/lcd.asm
                 LLD_LOOP   0x001112    program     static /Users/mreiter/Desktop/AER201/botL.X/lcd.asm
                      LOG   0x0005ae    program     static /Users/mreiter/Desktop/AER201/botL.X/main.asm
                 LOG_INFO   0x000612    program     static /Users/mreiter/Desktop/AER201/botL.X/main.asm
                     LOOP   0x001502    program     static /Users/mreiter/Desktop/AER201/botL.X/i2c.asm
                  LOOPING   0x0002fc    program     static /Users/mreiter/Desktop/AER201/botL.X/main.asm
                     Log1   0x000f92    program     static /Users/mreiter/Desktop/AER201/botL.X/main.asm
                     Log2   0x000f98    program     static /Users/mreiter/Desktop/AER201/botL.X/main.asm
                 LogInfo1   0x000fa6    program     static /Users/mreiter/Desktop/AER201/botL.X/main.asm
                 LogInfo2   0x000fae    program     static /Users/mreiter/Desktop/AER201/botL.X/main.asm
                   MovMSB   0x001104    program     static /Users/mreiter/Desktop/AER201/botL.X/lcd.asm
                   NoData   0x001024    program     static /Users/mreiter/Desktop/AER201/botL.X/main.asm
        NoSkipDispExeTime   0x000d76    program     static /Users/mreiter/Desktop/AER201/botL.X/main.asm
          NoSkipDispOpRTC   0x000ede    program     static /Users/mreiter/Desktop/AER201/botL.X/main.asm
         NoSkipDispOpSort   0x000e06    program     static /Users/mreiter/Desktop/AER201/botL.X/main.asm
                      PC1   0x000fe8    program     static /Users/mreiter/Desktop/AER201/botL.X/main.asm
                      PC2   0x000ff6    program     static /Users/mreiter/Desktop/AER201/botL.X/main.asm
               PCComplete   0x001010    program     static /Users/mreiter/Desktop/AER201/botL.X/main.asm
               PCTransfer   0x001000    program     static /Users/mreiter/Desktop/AER201/botL.X/main.asm
                  PC_MODE   0x000884    program     static /Users/mreiter/Desktop/AER201/botL.X/main.asm
              PC_TRANSFER   0x0008fe    program     static /Users/mreiter/Desktop/AER201/botL.X/main.asm
                 PERM_LOG   0x00065a    program     static /Users/mreiter/Desktop/AER201/botL.X/main.asm
                     PLOG   0x000778    program     static /Users/mreiter/Desktop/AER201/botL.X/main.asm
             PLOG_DETAILS   0x00083e    program     static /Users/mreiter/Desktop/AER201/botL.X/main.asm
                 PermLog1   0x000fb8    program     static /Users/mreiter/Desktop/AER201/botL.X/main.asm
                 PermLog2   0x000fc8    program     static /Users/mreiter/Desktop/AER201/botL.X/main.asm
                   RD_END   0x001398    program     static /Users/mreiter/Desktop/AER201/botL.X/i2c_common.asm
               RD_END_RTC   0x00128e    program     static /Users/mreiter/Desktop/AER201/botL.X/i2c_common.asm
                  RD_ERR1   0x00137a    program     static /Users/mreiter/Desktop/AER201/botL.X/i2c_common.asm
              RD_ERR1_RTC   0x001270    program     static /Users/mreiter/Desktop/AER201/botL.X/i2c_common.asm
                  RD_ERR2   0x001384    program     static /Users/mreiter/Desktop/AER201/botL.X/i2c_common.asm
              RD_ERR2_RTC   0x00127a    program     static /Users/mreiter/Desktop/AER201/botL.X/i2c_common.asm
                  RD_ERR3   0x00138e    program     static /Users/mreiter/Desktop/AER201/botL.X/i2c_common.asm
              RD_ERR3_RTC   0x001284    program     static /Users/mreiter/Desktop/AER201/botL.X/i2c_common.asm
             READ_ARDUINO   0x00145a    program     extern /Users/mreiter/Desktop/AER201/botL.X/i2c_common.asm
          READ_COLOUR_I2C   0x0012fa    program     extern /Users/mreiter/Desktop/AER201/botL.X/i2c_common.asm
                 READ_KEY   0x000d08    program     static /Users/mreiter/Desktop/AER201/botL.X/main.asm
            READ_KEY_TIME   0x000d1c    program     static /Users/mreiter/Desktop/AER201/botL.X/main.asm
                ROTATE_90   0x000362    program     static /Users/mreiter/Desktop/AER201/botL.X/main.asm
                 RTC_INIT   0x000928    program     static /Users/mreiter/Desktop/AER201/botL.X/main.asm
                     SAVE   0x00101a    program     static /Users/mreiter/Desktop/AER201/botL.X/main.asm
            SAVE_EXE_TIME   0x00099c    program     static /Users/mreiter/Desktop/AER201/botL.X/main.asm
                SAVE_TIME   0x000936    program     static /Users/mreiter/Desktop/AER201/botL.X/main.asm
                 SET_TIME   0x000b2c    program     static /Users/mreiter/Desktop/AER201/botL.X/main.asm
                  STANDBY   0x0001f0    program     static /Users/mreiter/Desktop/AER201/botL.X/main.asm
                STEP_TEST   0x0002da    program     static /Users/mreiter/Desktop/AER201/botL.X/main.asm
                 SaveData   0x000514    program     static /Users/mreiter/Desktop/AER201/botL.X/main.asm
                ShiftLoop   0x000546    program     static /Users/mreiter/Desktop/AER201/botL.X/main.asm
          SkipDispExeTime   0x000dc8    program     static /Users/mreiter/Desktop/AER201/botL.X/main.asm
            SkipDispOpRTC   0x000f3e    program     static /Users/mreiter/Desktop/AER201/botL.X/main.asm
           SkipDispOpSort   0x000ea0    program     static /Users/mreiter/Desktop/AER201/botL.X/main.asm
                  StandBy   0x000f8a    program     static /Users/mreiter/Desktop/AER201/botL.X/main.asm
                 TEST_ACK   0x00150e    program     static /Users/mreiter/Desktop/AER201/botL.X/i2c.asm
                TEST_NACK   0x0014ac    program     static /Users/mreiter/Desktop/AER201/botL.X/i2c.asm
            TRANSFER_DATA   0x000bc2    program     static /Users/mreiter/Desktop/AER201/botL.X/main.asm
            TRANSFER_LOGS   0x000bb8    program     static /Users/mreiter/Desktop/AER201/botL.X/main.asm
                TRAY_STEP   0x000412    program     static /Users/mreiter/Desktop/AER201/botL.X/main.asm
            TRAY_STEP_END   0x000412    program     static /Users/mreiter/Desktop/AER201/botL.X/main.asm
                     Team   0x000f80    program     static /Users/mreiter/Desktop/AER201/botL.X/main.asm
               USART_LINE   0x000c26    program     static /Users/mreiter/Desktop/AER201/botL.X/main.asm
               USART_WAIT   0x000c1c    program     static /Users/mreiter/Desktop/AER201/botL.X/main.asm
                     WAIT   0x0014c6    program     static /Users/mreiter/Desktop/AER201/botL.X/i2c.asm
         WRITE_COLOUR_I2C   0x0013a2    program     extern /Users/mreiter/Desktop/AER201/botL.X/i2c_common.asm
                  WR_DATA   0x00109c    program     extern /Users/mreiter/Desktop/AER201/botL.X/lcd.asm
                   WR_END   0x001422    program     static /Users/mreiter/Desktop/AER201/botL.X/i2c_common.asm
               WR_END_RTC   0x0011e4    program     static /Users/mreiter/Desktop/AER201/botL.X/i2c_common.asm
                  WR_ERR1   0x001402    program     static /Users/mreiter/Desktop/AER201/botL.X/i2c_common.asm
              WR_ERR1_RTC   0x0011c4    program     static /Users/mreiter/Desktop/AER201/botL.X/i2c_common.asm
                  WR_ERR2   0x00140c    program     static /Users/mreiter/Desktop/AER201/botL.X/i2c_common.asm
              WR_ERR2_RTC   0x0011ce    program     static /Users/mreiter/Desktop/AER201/botL.X/i2c_common.asm
                  WR_ERR3   0x001418    program     static /Users/mreiter/Desktop/AER201/botL.X/i2c_common.asm
              WR_ERR3_RTC   0x0011da    program     static /Users/mreiter/Desktop/AER201/botL.X/i2c_common.asm
                   WR_INS   0x001080    program     extern /Users/mreiter/Desktop/AER201/botL.X/lcd.asm
                  Welcome   0x000f7a    program     static /Users/mreiter/Desktop/AER201/botL.X/main.asm
              WriteEE_RTC   0x000c64    program     static /Users/mreiter/Desktop/AER201/botL.X/main.asm
                   WrtLCD   0x0010be    program     extern /Users/mreiter/Desktop/AER201/botL.X/lcd.asm
              _.code_001C   0x001162    program     static /Users/mreiter/Desktop/AER201/botL.X/i2c_common.asm
              _.code_002A   0x001170    program     static /Users/mreiter/Desktop/AER201/botL.X/i2c_common.asm
              _.code_0032   0x001178    program     static /Users/mreiter/Desktop/AER201/botL.X/i2c_common.asm
              _.code_0038   0x00117e    program     static /Users/mreiter/Desktop/AER201/botL.X/i2c_common.asm
              _.code_004C   0x001192    program     static /Users/mreiter/Desktop/AER201/botL.X/i2c_common.asm
              _.code_0052   0x001198    program     static /Users/mreiter/Desktop/AER201/botL.X/i2c_common.asm
              _.code_0066   0x0011ac    program     static /Users/mreiter/Desktop/AER201/botL.X/i2c_common.asm
              _.code_006C   0x0011b2    program     static /Users/mreiter/Desktop/AER201/botL.X/i2c_common.asm
              _.code_00A2   0x0011e8    program     static /Users/mreiter/Desktop/AER201/botL.X/i2c_common.asm
              _.code_00B0   0x0011f6    program     static /Users/mreiter/Desktop/AER201/botL.X/i2c_common.asm
              _.code_00B8   0x0011fe    program     static /Users/mreiter/Desktop/AER201/botL.X/i2c_common.asm
              _.code_00BE   0x001204    program     static /Users/mreiter/Desktop/AER201/botL.X/i2c_common.asm
              _.code_00C6   0x0010ee    program     static /Users/mreiter/Desktop/AER201/botL.X/lcd.asm
              _.code_00D2   0x001218    program     static /Users/mreiter/Desktop/AER201/botL.X/i2c_common.asm
              _.code_00D8   0x00121e    program     static /Users/mreiter/Desktop/AER201/botL.X/i2c_common.asm
              _.code_00EE   0x001234    program     static /Users/mreiter/Desktop/AER201/botL.X/i2c_common.asm
              _.code_00F0   0x001118    program     static /Users/mreiter/Desktop/AER201/botL.X/lcd.asm
              _.code_00F6   0x00123c    program     static /Users/mreiter/Desktop/AER201/botL.X/i2c_common.asm
              _.code_00FC   0x001242    program     static /Users/mreiter/Desktop/AER201/botL.X/i2c_common.asm
              _.code_010E   0x001254    program     static /Users/mreiter/Desktop/AER201/botL.X/i2c_common.asm
              _.code_014C   0x001292    program     static /Users/mreiter/Desktop/AER201/botL.X/i2c_common.asm
              _.code_0170   0x0012b6    program     static /Users/mreiter/Desktop/AER201/botL.X/i2c_common.asm
              _.code_0178   0x0012be    program     static /Users/mreiter/Desktop/AER201/botL.X/i2c_common.asm
              _.code_017E   0x0012c4    program     static /Users/mreiter/Desktop/AER201/botL.X/i2c_common.asm
              _.code_018A   0x0012d0    program     static /Users/mreiter/Desktop/AER201/botL.X/i2c_common.asm
              _.code_0190   0x0012d6    program     static /Users/mreiter/Desktop/AER201/botL.X/i2c_common.asm
              _.code_019C   0x0012e2    program     static /Users/mreiter/Desktop/AER201/botL.X/i2c_common.asm
              _.code_01A2   0x0012e8    program     static /Users/mreiter/Desktop/AER201/botL.X/i2c_common.asm
              _.code_01AE   0x0012f4    program     static /Users/mreiter/Desktop/AER201/botL.X/i2c_common.asm
              _.code_01BC   0x001302    program     static /Users/mreiter/Desktop/AER201/botL.X/i2c_common.asm
              _.code_01C4   0x00130a    program     static /Users/mreiter/Desktop/AER201/botL.X/i2c_common.asm
              _.code_01CA   0x001310    program     static /Users/mreiter/Desktop/AER201/botL.X/i2c_common.asm
              _.code_01E0   0x001326    program     static /Users/mreiter/Desktop/AER201/botL.X/i2c_common.asm
              _.code_01E6   0x00132c    program     static /Users/mreiter/Desktop/AER201/botL.X/i2c_common.asm
              _.code_01F8   0x00133e    program     static /Users/mreiter/Desktop/AER201/botL.X/i2c_common.asm
              _.code_0200   0x001346    program     static /Users/mreiter/Desktop/AER201/botL.X/i2c_common.asm
              _.code_0206   0x00134c    program     static /Users/mreiter/Desktop/AER201/botL.X/i2c_common.asm
              _.code_0218   0x00135e    program     static /Users/mreiter/Desktop/AER201/botL.X/i2c_common.asm
              _.code_0256   0x00139c    program     static /Users/mreiter/Desktop/AER201/botL.X/i2c_common.asm
              _.code_0264   0x0013aa    program     static /Users/mreiter/Desktop/AER201/botL.X/i2c_common.asm
              _.code_026C   0x0013b2    program     static /Users/mreiter/Desktop/AER201/botL.X/i2c_common.asm
              _.code_0272   0x0013b8    program     static /Users/mreiter/Desktop/AER201/botL.X/i2c_common.asm
              _.code_0288   0x0013ce    program     static /Users/mreiter/Desktop/AER201/botL.X/i2c_common.asm
              _.code_028E   0x0013d4    program     static /Users/mreiter/Desktop/AER201/botL.X/i2c_common.asm
              _.code_02A4   0x0013ea    program     static /Users/mreiter/Desktop/AER201/botL.X/i2c_common.asm
              _.code_02AA   0x0013f0    program     static /Users/mreiter/Desktop/AER201/botL.X/i2c_common.asm
              _.code_02E0   0x001426    program     static /Users/mreiter/Desktop/AER201/botL.X/i2c_common.asm
              _.code_02EE   0x001434    program     static /Users/mreiter/Desktop/AER201/botL.X/i2c_common.asm
              _.code_02F6   0x00143c    program     static /Users/mreiter/Desktop/AER201/botL.X/i2c_common.asm
              _.code_02FC   0x001442    program     static /Users/mreiter/Desktop/AER201/botL.X/i2c_common.asm
              _.code_030E   0x001454    program     static /Users/mreiter/Desktop/AER201/botL.X/i2c_common.asm
              _.code_031C   0x001462    program     static /Users/mreiter/Desktop/AER201/botL.X/i2c_common.asm
              _.code_0324   0x00146a    program     static /Users/mreiter/Desktop/AER201/botL.X/i2c_common.asm
              _.code_032C   0x001472    program     static /Users/mreiter/Desktop/AER201/botL.X/i2c_common.asm
              _.code_0332   0x001478    program     static /Users/mreiter/Desktop/AER201/botL.X/i2c_common.asm
              _.code_033E   0x001484    program     static /Users/mreiter/Desktop/AER201/botL.X/i2c_common.asm
              _.code_0358   0x00149e    program     static /Users/mreiter/Desktop/AER201/botL.X/i2c_common.asm
             _.org_2_0454   0x000454    program     static /Users/mreiter/Desktop/AER201/botL.X/main.asm
             _.org_2_046C   0x00046c    program     static /Users/mreiter/Desktop/AER201/botL.X/main.asm
             _.org_2_0488   0x000488    program     static /Users/mreiter/Desktop/AER201/botL.X/main.asm
             _.org_2_04A0   0x0004a0    program     static /Users/mreiter/Desktop/AER201/botL.X/main.asm
             _.org_2_04BC   0x0004bc    program     static /Users/mreiter/Desktop/AER201/botL.X/main.asm
             _.org_2_04D4   0x0004d4    program     static /Users/mreiter/Desktop/AER201/botL.X/main.asm
             _.org_2_04F0   0x0004f0    program     static /Users/mreiter/Desktop/AER201/botL.X/main.asm
             _.org_2_0508   0x000508    program     static /Users/mreiter/Desktop/AER201/botL.X/main.asm
             _.org_2_056C   0x00056c    program     static /Users/mreiter/Desktop/AER201/botL.X/main.asm
             _.org_2_0584   0x000584    program     static /Users/mreiter/Desktop/AER201/botL.X/main.asm
             _.org_2_09B8   0x0009b8    program     static /Users/mreiter/Desktop/AER201/botL.X/main.asm
             _.org_2_09D0   0x0009d0    program     static /Users/mreiter/Desktop/AER201/botL.X/main.asm
             _.org_2_09F4   0x0009f4    program     static /Users/mreiter/Desktop/AER201/botL.X/main.asm
             _.org_2_0A0C   0x000a0c    program     static /Users/mreiter/Desktop/AER201/botL.X/main.asm
             _.org_2_0A30   0x000a30    program     static /Users/mreiter/Desktop/AER201/botL.X/main.asm
             _.org_2_0A48   0x000a48    program     static /Users/mreiter/Desktop/AER201/botL.X/main.asm
             _.org_2_0C20   0x000c20    program     static /Users/mreiter/Desktop/AER201/botL.X/main.asm
             _.org_2_0C72   0x000c72    program     static /Users/mreiter/Desktop/AER201/botL.X/main.asm
             _.org_2_0C8A   0x000c8a    program     static /Users/mreiter/Desktop/AER201/botL.X/main.asm
             _.org_2_0CA0   0x000ca0    program     static /Users/mreiter/Desktop/AER201/botL.X/main.asm
             _.org_2_0CB8   0x000cb8    program     static /Users/mreiter/Desktop/AER201/botL.X/main.asm
             _.org_2_0CD8   0x000cd8    program     static /Users/mreiter/Desktop/AER201/botL.X/main.asm
             _.org_2_0CF0   0x000cf0    program     static /Users/mreiter/Desktop/AER201/botL.X/main.asm
             _.org_2_0D16   0x000d16    program     static /Users/mreiter/Desktop/AER201/botL.X/main.asm
             _.org_2_0D32   0x000d32    program     static /Users/mreiter/Desktop/AER201/botL.X/main.asm
                 _101loop   0x000ecc    program     static /Users/mreiter/Desktop/AER201/botL.X/main.asm
                  _10loop   0x0001e6    program     static /Users/mreiter/Desktop/AER201/botL.X/main.asm
                  _11loop   0x000204    program     static /Users/mreiter/Desktop/AER201/botL.X/main.asm
                  _12Exit   0x000226    program     static /Users/mreiter/Desktop/AER201/botL.X/main.asm
                  _12Next   0x00021a    program     static /Users/mreiter/Desktop/AER201/botL.X/main.asm
                  _13Exit   0x00023c    program     static /Users/mreiter/Desktop/AER201/botL.X/main.asm
                  _13Next   0x000230    program     static /Users/mreiter/Desktop/AER201/botL.X/main.asm
                  _14Exit   0x000252    program     static /Users/mreiter/Desktop/AER201/botL.X/main.asm
                  _14Next   0x000246    program     static /Users/mreiter/Desktop/AER201/botL.X/main.asm
                  _15Exit   0x000268    program     static /Users/mreiter/Desktop/AER201/botL.X/main.asm
                  _15Next   0x00025c    program     static /Users/mreiter/Desktop/AER201/botL.X/main.asm
                  _16Exit   0x00027e    program     static /Users/mreiter/Desktop/AER201/botL.X/main.asm
                  _16Next   0x000272    program     static /Users/mreiter/Desktop/AER201/botL.X/main.asm
                  _17Exit   0x000294    program     static /Users/mreiter/Desktop/AER201/botL.X/main.asm
                  _17Next   0x000288    program     static /Users/mreiter/Desktop/AER201/botL.X/main.asm
                  _18Exit   0x0002aa    program     static /Users/mreiter/Desktop/AER201/botL.X/main.asm
                  _18Next   0x00029e    program     static /Users/mreiter/Desktop/AER201/botL.X/main.asm
                  _19loop   0x0002bc    program     static /Users/mreiter/Desktop/AER201/botL.X/main.asm
                  _20loop   0x0002ce    program     static /Users/mreiter/Desktop/AER201/botL.X/main.asm
                  _21loop   0x000300    program     static /Users/mreiter/Desktop/AER201/botL.X/main.asm
                  _22loop   0x000336    program     static /Users/mreiter/Desktop/AER201/botL.X/main.asm
                  _23loop   0x000380    program     static /Users/mreiter/Desktop/AER201/botL.X/main.asm
                  _24Exit   0x000434    program     static /Users/mreiter/Desktop/AER201/botL.X/main.asm
                  _24Next   0x000428    program     static /Users/mreiter/Desktop/AER201/botL.X/main.asm
                  _29loop   0x000528    program     static /Users/mreiter/Desktop/AER201/botL.X/main.asm
                 _2endBCD   0x000098    program     static /Users/mreiter/Desktop/AER201/botL.X/main.asm
                   _2ones   0x000092    program     static /Users/mreiter/Desktop/AER201/botL.X/main.asm
                  _32loop   0x0005c2    program     static /Users/mreiter/Desktop/AER201/botL.X/main.asm
                  _33Exit   0x0005f8    program     static /Users/mreiter/Desktop/AER201/botL.X/main.asm
                  _33Next   0x0005ec    program     static /Users/mreiter/Desktop/AER201/botL.X/main.asm
                  _34Exit   0x00060e    program     static /Users/mreiter/Desktop/AER201/botL.X/main.asm
                  _34Next   0x000602    program     static /Users/mreiter/Desktop/AER201/botL.X/main.asm
                  _35loop   0x000630    program     static /Users/mreiter/Desktop/AER201/botL.X/main.asm
                  _36Exit   0x000656    program     static /Users/mreiter/Desktop/AER201/botL.X/main.asm
                  _36Next   0x00064a    program     static /Users/mreiter/Desktop/AER201/botL.X/main.asm
                  _37loop   0x00066e    program     static /Users/mreiter/Desktop/AER201/botL.X/main.asm
                  _38loop   0x00068c    program     static /Users/mreiter/Desktop/AER201/botL.X/main.asm
                  _39Exit   0x0006ae    program     static /Users/mreiter/Desktop/AER201/botL.X/main.asm
                  _39Next   0x0006a2    program     static /Users/mreiter/Desktop/AER201/botL.X/main.asm
                 _3endBCD   0x0000ca    program     static /Users/mreiter/Desktop/AER201/botL.X/main.asm
                   _3ones   0x0000c4    program     static /Users/mreiter/Desktop/AER201/botL.X/main.asm
                  _40Exit   0x0006c4    program     static /Users/mreiter/Desktop/AER201/botL.X/main.asm
                  _40Next   0x0006b8    program     static /Users/mreiter/Desktop/AER201/botL.X/main.asm
                  _41Exit   0x0006da    program     static /Users/mreiter/Desktop/AER201/botL.X/main.asm
                  _41Next   0x0006ce    program     static /Users/mreiter/Desktop/AER201/botL.X/main.asm
                  _42Exit   0x0006f0    program     static /Users/mreiter/Desktop/AER201/botL.X/main.asm
                  _42Next   0x0006e4    program     static /Users/mreiter/Desktop/AER201/botL.X/main.asm
                  _43Exit   0x000706    program     static /Users/mreiter/Desktop/AER201/botL.X/main.asm
                  _43Next   0x0006fa    program     static /Users/mreiter/Desktop/AER201/botL.X/main.asm
                  _44Exit   0x00071c    program     static /Users/mreiter/Desktop/AER201/botL.X/main.asm
                  _44Next   0x000710    program     static /Users/mreiter/Desktop/AER201/botL.X/main.asm
                  _45Exit   0x000732    program     static /Users/mreiter/Desktop/AER201/botL.X/main.asm
                  _45Next   0x000726    program     static /Users/mreiter/Desktop/AER201/botL.X/main.asm
                  _46Exit   0x000748    program     static /Users/mreiter/Desktop/AER201/botL.X/main.asm
                  _46Next   0x00073c    program     static /Users/mreiter/Desktop/AER201/botL.X/main.asm
                  _47Exit   0x00075e    program     static /Users/mreiter/Desktop/AER201/botL.X/main.asm
                  _47Next   0x000752    program     static /Users/mreiter/Desktop/AER201/botL.X/main.asm
                  _48Exit   0x000774    program     static /Users/mreiter/Desktop/AER201/botL.X/main.asm
                  _48Next   0x000768    program     static /Users/mreiter/Desktop/AER201/botL.X/main.asm
                  _49loop   0x00078c    program     static /Users/mreiter/Desktop/AER201/botL.X/main.asm
                  _52Exit   0x000824    program     static /Users/mreiter/Desktop/AER201/botL.X/main.asm
                  _52Next   0x000818    program     static /Users/mreiter/Desktop/AER201/botL.X/main.asm
                  _53Exit   0x00083a    program     static /Users/mreiter/Desktop/AER201/botL.X/main.asm
                  _53Next   0x00082e    program     static /Users/mreiter/Desktop/AER201/botL.X/main.asm
                  _54loop   0x000852    program     static /Users/mreiter/Desktop/AER201/botL.X/main.asm
                  _55Exit   0x000880    program     static /Users/mreiter/Desktop/AER201/botL.X/main.asm
                  _55Next   0x000874    program     static /Users/mreiter/Desktop/AER201/botL.X/main.asm
                  _56loop   0x000898    program     static /Users/mreiter/Desktop/AER201/botL.X/main.asm
                  _57loop   0x0008b6    program     static /Users/mreiter/Desktop/AER201/botL.X/main.asm
                  _58Exit   0x0008e4    program     static /Users/mreiter/Desktop/AER201/botL.X/main.asm
                  _58Next   0x0008d8    program     static /Users/mreiter/Desktop/AER201/botL.X/main.asm
                  _59Exit   0x0008fa    program     static /Users/mreiter/Desktop/AER201/botL.X/main.asm
                  _59Next   0x0008ee    program     static /Users/mreiter/Desktop/AER201/botL.X/main.asm
                  _60loop   0x000914    program     static /Users/mreiter/Desktop/AER201/botL.X/main.asm
                  _84loop   0x000c02    program     static /Users/mreiter/Desktop/AER201/botL.X/main.asm
                  _85loop   0x000c10    program     static /Users/mreiter/Desktop/AER201/botL.X/main.asm
                   _8loop   0x0001ba    program     static /Users/mreiter/Desktop/AER201/botL.X/main.asm
                  _90loop   0x000d62    program     static /Users/mreiter/Desktop/AER201/botL.X/main.asm
                  _95loop   0x000df4    program     static /Users/mreiter/Desktop/AER201/botL.X/main.asm
                   _9loop   0x0001d8    program     static /Users/mreiter/Desktop/AER201/botL.X/main.asm
                  _waitl0   0x001266    program     static /Users/mreiter/Desktop/AER201/botL.X/i2c_common.asm
                  _waitl1   0x001370    program     static /Users/mreiter/Desktop/AER201/botL.X/i2c_common.asm
                  _waitl2   0x001494    program     static /Users/mreiter/Desktop/AER201/botL.X/i2c_common.asm
                       d2   0x001140    program     static /Users/mreiter/Desktop/AER201/botL.X/lcd.asm
                del_loop0   0x000b32    program     static /Users/mreiter/Desktop/AER201/botL.X/main.asm
                delay44us   0x001124    program     extern /Users/mreiter/Desktop/AER201/botL.X/lcd.asm
                 delay5ms   0x001130    program     extern /Users/mreiter/Desktop/AER201/botL.X/lcd.asm
               displayNum   0x0007b2    program     static /Users/mreiter/Desktop/AER201/botL.X/main.asm
         i2c_common_setup   0x001146    program     extern /Users/mreiter/Desktop/AER201/botL.X/i2c_common.asm
             lcdLongDelay   0x00110e    program     static /Users/mreiter/Desktop/AER201/botL.X/lcd.asm
                loop200us   0x000c46    program     static /Users/mreiter/Desktop/AER201/botL.X/main.asm
                 loop50ms   0x000c54    program     static /Users/mreiter/Desktop/AER201/botL.X/main.asm
                  loop5us   0x000c38    program     static /Users/mreiter/Desktop/AER201/botL.X/main.asm
                 read_rtc   0x0011ee    program     extern /Users/mreiter/Desktop/AER201/botL.X/i2c_common.asm
              rtc_convert   0x001298    program     extern /Users/mreiter/Desktop/AER201/botL.X/i2c_common.asm
                write_rtc   0x001168    program     extern /Users/mreiter/Desktop/AER201/botL.X/i2c_common.asm
           convert_buffer   0x000087       data     extern /Users/mreiter/Desktop/AER201/botL.X/i2c_common.asm
             data_colourH   0x000084       data     extern /Users/mreiter/Desktop/AER201/botL.X/i2c_common.asm
             data_colourL   0x000083       data     extern /Users/mreiter/Desktop/AER201/botL.X/i2c_common.asm
                 databyte   0x000081       data     extern /Users/mreiter/Desktop/AER201/botL.X/i2c_common.asm
                 datachar   0x000082       data     extern /Users/mreiter/Desktop/AER201/botL.X/i2c_common.asm
               ones_digit   0x000086       data     extern /Users/mreiter/Desktop/AER201/botL.X/i2c_common.asm
               regaddress   0x000080       data     extern /Users/mreiter/Desktop/AER201/botL.X/i2c_common.asm
               tens_digit   0x000085       data     extern /Users/mreiter/Desktop/AER201/botL.X/i2c_common.asm



                              Symbols - Sorted by Address
                     Name    Address   Location    Storage File                     
                ---------  ---------  ---------  --------- ---------                
                 ISR_HIGH   0x00001c    program     static /Users/mreiter/Desktop/AER201/botL.X/main.asm
                   _2ones   0x000092    program     static /Users/mreiter/Desktop/AER201/botL.X/main.asm
                 _2endBCD   0x000098    program     static /Users/mreiter/Desktop/AER201/botL.X/main.asm
                   _3ones   0x0000c4    program     static /Users/mreiter/Desktop/AER201/botL.X/main.asm
                 _3endBCD   0x0000ca    program     static /Users/mreiter/Desktop/AER201/botL.X/main.asm
             END_ISR_HIGH   0x0000cc    program     static /Users/mreiter/Desktop/AER201/botL.X/main.asm
                  ISR_LOW   0x0000d6    program     static /Users/mreiter/Desktop/AER201/botL.X/main.asm
              END_ISR_LOW   0x000102    program     static /Users/mreiter/Desktop/AER201/botL.X/main.asm
                     INIT   0x00010c    program     static /Users/mreiter/Desktop/AER201/botL.X/main.asm
                   _8loop   0x0001ba    program     static /Users/mreiter/Desktop/AER201/botL.X/main.asm
                   _9loop   0x0001d8    program     static /Users/mreiter/Desktop/AER201/botL.X/main.asm
                  _10loop   0x0001e6    program     static /Users/mreiter/Desktop/AER201/botL.X/main.asm
                  STANDBY   0x0001f0    program     static /Users/mreiter/Desktop/AER201/botL.X/main.asm
                  _11loop   0x000204    program     static /Users/mreiter/Desktop/AER201/botL.X/main.asm
             HOLD_STANDBY   0x00020e    program     static /Users/mreiter/Desktop/AER201/botL.X/main.asm
                  _12Next   0x00021a    program     static /Users/mreiter/Desktop/AER201/botL.X/main.asm
                  _12Exit   0x000226    program     static /Users/mreiter/Desktop/AER201/botL.X/main.asm
                  _13Next   0x000230    program     static /Users/mreiter/Desktop/AER201/botL.X/main.asm
                  _13Exit   0x00023c    program     static /Users/mreiter/Desktop/AER201/botL.X/main.asm
                  _14Next   0x000246    program     static /Users/mreiter/Desktop/AER201/botL.X/main.asm
                  _14Exit   0x000252    program     static /Users/mreiter/Desktop/AER201/botL.X/main.asm
                  _15Next   0x00025c    program     static /Users/mreiter/Desktop/AER201/botL.X/main.asm
                  _15Exit   0x000268    program     static /Users/mreiter/Desktop/AER201/botL.X/main.asm
                  _16Next   0x000272    program     static /Users/mreiter/Desktop/AER201/botL.X/main.asm
                  _16Exit   0x00027e    program     static /Users/mreiter/Desktop/AER201/botL.X/main.asm
                  _17Next   0x000288    program     static /Users/mreiter/Desktop/AER201/botL.X/main.asm
                  _17Exit   0x000294    program     static /Users/mreiter/Desktop/AER201/botL.X/main.asm
                  _18Next   0x00029e    program     static /Users/mreiter/Desktop/AER201/botL.X/main.asm
                  _18Exit   0x0002aa    program     static /Users/mreiter/Desktop/AER201/botL.X/main.asm
                  IR_TEST   0x0002ae    program     static /Users/mreiter/Desktop/AER201/botL.X/main.asm
                  _19loop   0x0002bc    program     static /Users/mreiter/Desktop/AER201/botL.X/main.asm
                  _20loop   0x0002ce    program     static /Users/mreiter/Desktop/AER201/botL.X/main.asm
                STEP_TEST   0x0002da    program     static /Users/mreiter/Desktop/AER201/botL.X/main.asm
              COLOUR_TEST   0x0002fc    program     static /Users/mreiter/Desktop/AER201/botL.X/main.asm
                  LOOPING   0x0002fc    program     static /Users/mreiter/Desktop/AER201/botL.X/main.asm
                  _21loop   0x000300    program     static /Users/mreiter/Desktop/AER201/botL.X/main.asm
                EXECUTION   0x000318    program     static /Users/mreiter/Desktop/AER201/botL.X/main.asm
                  _22loop   0x000336    program     static /Users/mreiter/Desktop/AER201/botL.X/main.asm
         COLLECTIONS_STEP   0x000360    program     static /Users/mreiter/Desktop/AER201/botL.X/main.asm
                ROTATE_90   0x000362    program     static /Users/mreiter/Desktop/AER201/botL.X/main.asm
               DETECTIONS   0x00037c    program     static /Users/mreiter/Desktop/AER201/botL.X/main.asm
                  _23loop   0x000380    program     static /Users/mreiter/Desktop/AER201/botL.X/main.asm
             INC_YOPNOCAP   0x0003b0    program     static /Users/mreiter/Desktop/AER201/botL.X/main.asm
               INC_YOPCAP   0x0003ca    program     static /Users/mreiter/Desktop/AER201/botL.X/main.asm
            INC_ESKANOCAP   0x0003e2    program     static /Users/mreiter/Desktop/AER201/botL.X/main.asm
              INC_ESKACAP   0x0003fa    program     static /Users/mreiter/Desktop/AER201/botL.X/main.asm
            TRAY_STEP_END   0x000412    program     static /Users/mreiter/Desktop/AER201/botL.X/main.asm
                TRAY_STEP   0x000412    program     static /Users/mreiter/Desktop/AER201/botL.X/main.asm
               CHECK_DONE   0x000412    program     static /Users/mreiter/Desktop/AER201/botL.X/main.asm
                 HOLD_EXE   0x00041c    program     static /Users/mreiter/Desktop/AER201/botL.X/main.asm
                  _24Next   0x000428    program     static /Users/mreiter/Desktop/AER201/botL.X/main.asm
                  _24Exit   0x000434    program     static /Users/mreiter/Desktop/AER201/botL.X/main.asm
                 EXIT_EXE   0x000438    program     static /Users/mreiter/Desktop/AER201/botL.X/main.asm
             _.org_2_0454   0x000454    program     static /Users/mreiter/Desktop/AER201/botL.X/main.asm
             _.org_2_046C   0x00046c    program     static /Users/mreiter/Desktop/AER201/botL.X/main.asm
             _.org_2_0488   0x000488    program     static /Users/mreiter/Desktop/AER201/botL.X/main.asm
             _.org_2_04A0   0x0004a0    program     static /Users/mreiter/Desktop/AER201/botL.X/main.asm
             _.org_2_04BC   0x0004bc    program     static /Users/mreiter/Desktop/AER201/botL.X/main.asm
             _.org_2_04D4   0x0004d4    program     static /Users/mreiter/Desktop/AER201/botL.X/main.asm
             _.org_2_04F0   0x0004f0    program     static /Users/mreiter/Desktop/AER201/botL.X/main.asm
             _.org_2_0508   0x000508    program     static /Users/mreiter/Desktop/AER201/botL.X/main.asm
                 SaveData   0x000514    program     static /Users/mreiter/Desktop/AER201/botL.X/main.asm
                  _29loop   0x000528    program     static /Users/mreiter/Desktop/AER201/botL.X/main.asm
                ShiftLoop   0x000546    program     static /Users/mreiter/Desktop/AER201/botL.X/main.asm
             _.org_2_056C   0x00056c    program     static /Users/mreiter/Desktop/AER201/botL.X/main.asm
             _.org_2_0584   0x000584    program     static /Users/mreiter/Desktop/AER201/botL.X/main.asm
                      LOG   0x0005ae    program     static /Users/mreiter/Desktop/AER201/botL.X/main.asm
                  _32loop   0x0005c2    program     static /Users/mreiter/Desktop/AER201/botL.X/main.asm
                 HOLD_LOG   0x0005e0    program     static /Users/mreiter/Desktop/AER201/botL.X/main.asm
                  _33Next   0x0005ec    program     static /Users/mreiter/Desktop/AER201/botL.X/main.asm
                  _33Exit   0x0005f8    program     static /Users/mreiter/Desktop/AER201/botL.X/main.asm
                  _34Next   0x000602    program     static /Users/mreiter/Desktop/AER201/botL.X/main.asm
                  _34Exit   0x00060e    program     static /Users/mreiter/Desktop/AER201/botL.X/main.asm
                 LOG_INFO   0x000612    program     static /Users/mreiter/Desktop/AER201/botL.X/main.asm
                  _35loop   0x000630    program     static /Users/mreiter/Desktop/AER201/botL.X/main.asm
            HOLD_LOG_INFO   0x00063e    program     static /Users/mreiter/Desktop/AER201/botL.X/main.asm
                  _36Next   0x00064a    program     static /Users/mreiter/Desktop/AER201/botL.X/main.asm
                  _36Exit   0x000656    program     static /Users/mreiter/Desktop/AER201/botL.X/main.asm
                 PERM_LOG   0x00065a    program     static /Users/mreiter/Desktop/AER201/botL.X/main.asm
                  _37loop   0x00066e    program     static /Users/mreiter/Desktop/AER201/botL.X/main.asm
                  _38loop   0x00068c    program     static /Users/mreiter/Desktop/AER201/botL.X/main.asm
            HOLD_PERM_LOG   0x000696    program     static /Users/mreiter/Desktop/AER201/botL.X/main.asm
                  _39Next   0x0006a2    program     static /Users/mreiter/Desktop/AER201/botL.X/main.asm
                  _39Exit   0x0006ae    program     static /Users/mreiter/Desktop/AER201/botL.X/main.asm
                  _40Next   0x0006b8    program     static /Users/mreiter/Desktop/AER201/botL.X/main.asm
                  _40Exit   0x0006c4    program     static /Users/mreiter/Desktop/AER201/botL.X/main.asm
                  _41Next   0x0006ce    program     static /Users/mreiter/Desktop/AER201/botL.X/main.asm
                  _41Exit   0x0006da    program     static /Users/mreiter/Desktop/AER201/botL.X/main.asm
                  _42Next   0x0006e4    program     static /Users/mreiter/Desktop/AER201/botL.X/main.asm
                  _42Exit   0x0006f0    program     static /Users/mreiter/Desktop/AER201/botL.X/main.asm
                  _43Next   0x0006fa    program     static /Users/mreiter/Desktop/AER201/botL.X/main.asm
                  _43Exit   0x000706    program     static /Users/mreiter/Desktop/AER201/botL.X/main.asm
                  _44Next   0x000710    program     static /Users/mreiter/Desktop/AER201/botL.X/main.asm
                  _44Exit   0x00071c    program     static /Users/mreiter/Desktop/AER201/botL.X/main.asm
                  _45Next   0x000726    program     static /Users/mreiter/Desktop/AER201/botL.X/main.asm
                  _45Exit   0x000732    program     static /Users/mreiter/Desktop/AER201/botL.X/main.asm
                  _46Next   0x00073c    program     static /Users/mreiter/Desktop/AER201/botL.X/main.asm
                  _46Exit   0x000748    program     static /Users/mreiter/Desktop/AER201/botL.X/main.asm
                  _47Next   0x000752    program     static /Users/mreiter/Desktop/AER201/botL.X/main.asm
                  _47Exit   0x00075e    program     static /Users/mreiter/Desktop/AER201/botL.X/main.asm
                  _48Next   0x000768    program     static /Users/mreiter/Desktop/AER201/botL.X/main.asm
                  _48Exit   0x000774    program     static /Users/mreiter/Desktop/AER201/botL.X/main.asm
                     PLOG   0x000778    program     static /Users/mreiter/Desktop/AER201/botL.X/main.asm
                  _49loop   0x00078c    program     static /Users/mreiter/Desktop/AER201/botL.X/main.asm
               displayNum   0x0007b2    program     static /Users/mreiter/Desktop/AER201/botL.X/main.asm
                HOLD_PLOG   0x00080c    program     static /Users/mreiter/Desktop/AER201/botL.X/main.asm
                  _52Next   0x000818    program     static /Users/mreiter/Desktop/AER201/botL.X/main.asm
                  _52Exit   0x000824    program     static /Users/mreiter/Desktop/AER201/botL.X/main.asm
                  _53Next   0x00082e    program     static /Users/mreiter/Desktop/AER201/botL.X/main.asm
                  _53Exit   0x00083a    program     static /Users/mreiter/Desktop/AER201/botL.X/main.asm
             PLOG_DETAILS   0x00083e    program     static /Users/mreiter/Desktop/AER201/botL.X/main.asm
                  _54loop   0x000852    program     static /Users/mreiter/Desktop/AER201/botL.X/main.asm
        HOLD_PLOG_DETAILS   0x000868    program     static /Users/mreiter/Desktop/AER201/botL.X/main.asm
                  _55Next   0x000874    program     static /Users/mreiter/Desktop/AER201/botL.X/main.asm
                  _55Exit   0x000880    program     static /Users/mreiter/Desktop/AER201/botL.X/main.asm
                  PC_MODE   0x000884    program     static /Users/mreiter/Desktop/AER201/botL.X/main.asm
                  _56loop   0x000898    program     static /Users/mreiter/Desktop/AER201/botL.X/main.asm
                  _57loop   0x0008b6    program     static /Users/mreiter/Desktop/AER201/botL.X/main.asm
                  HOLD_PC   0x0008cc    program     static /Users/mreiter/Desktop/AER201/botL.X/main.asm
                  _58Next   0x0008d8    program     static /Users/mreiter/Desktop/AER201/botL.X/main.asm
                  _58Exit   0x0008e4    program     static /Users/mreiter/Desktop/AER201/botL.X/main.asm
                  _59Next   0x0008ee    program     static /Users/mreiter/Desktop/AER201/botL.X/main.asm
                  _59Exit   0x0008fa    program     static /Users/mreiter/Desktop/AER201/botL.X/main.asm
              PC_TRANSFER   0x0008fe    program     static /Users/mreiter/Desktop/AER201/botL.X/main.asm
                  _60loop   0x000914    program     static /Users/mreiter/Desktop/AER201/botL.X/main.asm
             ARDUINO_INIT   0x000926    program     static /Users/mreiter/Desktop/AER201/botL.X/main.asm
                 RTC_INIT   0x000928    program     static /Users/mreiter/Desktop/AER201/botL.X/main.asm
                SAVE_TIME   0x000936    program     static /Users/mreiter/Desktop/AER201/botL.X/main.asm
            SAVE_EXE_TIME   0x00099c    program     static /Users/mreiter/Desktop/AER201/botL.X/main.asm
             _.org_2_09B8   0x0009b8    program     static /Users/mreiter/Desktop/AER201/botL.X/main.asm
             _.org_2_09D0   0x0009d0    program     static /Users/mreiter/Desktop/AER201/botL.X/main.asm
             _.org_2_09F4   0x0009f4    program     static /Users/mreiter/Desktop/AER201/botL.X/main.asm
             _.org_2_0A0C   0x000a0c    program     static /Users/mreiter/Desktop/AER201/botL.X/main.asm
             _.org_2_0A30   0x000a30    program     static /Users/mreiter/Desktop/AER201/botL.X/main.asm
             _.org_2_0A48   0x000a48    program     static /Users/mreiter/Desktop/AER201/botL.X/main.asm
              DISPLAY_RTC   0x000a52    program     static /Users/mreiter/Desktop/AER201/botL.X/main.asm
                 SET_TIME   0x000b2c    program     static /Users/mreiter/Desktop/AER201/botL.X/main.asm
                del_loop0   0x000b32    program     static /Users/mreiter/Desktop/AER201/botL.X/main.asm
               INIT_USART   0x000b94    program     static /Users/mreiter/Desktop/AER201/botL.X/main.asm
                DataUSART   0x000ba8    program     static /Users/mreiter/Desktop/AER201/botL.X/main.asm
            TRANSFER_LOGS   0x000bb8    program     static /Users/mreiter/Desktop/AER201/botL.X/main.asm
            TRANSFER_DATA   0x000bc2    program     static /Users/mreiter/Desktop/AER201/botL.X/main.asm
                  _84loop   0x000c02    program     static /Users/mreiter/Desktop/AER201/botL.X/main.asm
                  _85loop   0x000c10    program     static /Users/mreiter/Desktop/AER201/botL.X/main.asm
               USART_WAIT   0x000c1c    program     static /Users/mreiter/Desktop/AER201/botL.X/main.asm
             _.org_2_0C20   0x000c20    program     static /Users/mreiter/Desktop/AER201/botL.X/main.asm
               USART_LINE   0x000c26    program     static /Users/mreiter/Desktop/AER201/botL.X/main.asm
                 Delay5us   0x000c34    program     static /Users/mreiter/Desktop/AER201/botL.X/main.asm
                  loop5us   0x000c38    program     static /Users/mreiter/Desktop/AER201/botL.X/main.asm
               Delay200us   0x000c42    program     static /Users/mreiter/Desktop/AER201/botL.X/main.asm
                loop200us   0x000c46    program     static /Users/mreiter/Desktop/AER201/botL.X/main.asm
                Delay50ms   0x000c50    program     static /Users/mreiter/Desktop/AER201/botL.X/main.asm
                 loop50ms   0x000c54    program     static /Users/mreiter/Desktop/AER201/botL.X/main.asm
                   Cycles   0x000c5a    program     static /Users/mreiter/Desktop/AER201/botL.X/main.asm
              WriteEE_RTC   0x000c64    program     static /Users/mreiter/Desktop/AER201/botL.X/main.asm
             _.org_2_0C72   0x000c72    program     static /Users/mreiter/Desktop/AER201/botL.X/main.asm
             _.org_2_0C8A   0x000c8a    program     static /Users/mreiter/Desktop/AER201/botL.X/main.asm
             _.org_2_0CA0   0x000ca0    program     static /Users/mreiter/Desktop/AER201/botL.X/main.asm
             _.org_2_0CB8   0x000cb8    program     static /Users/mreiter/Desktop/AER201/botL.X/main.asm
           ClearEEPROM_21   0x000cc2    program     static /Users/mreiter/Desktop/AER201/botL.X/main.asm
                ClearNext   0x000cca    program     static /Users/mreiter/Desktop/AER201/botL.X/main.asm
             _.org_2_0CD8   0x000cd8    program     static /Users/mreiter/Desktop/AER201/botL.X/main.asm
             _.org_2_0CF0   0x000cf0    program     static /Users/mreiter/Desktop/AER201/botL.X/main.asm
                 READ_KEY   0x000d08    program     static /Users/mreiter/Desktop/AER201/botL.X/main.asm
             _.org_2_0D16   0x000d16    program     static /Users/mreiter/Desktop/AER201/botL.X/main.asm
            READ_KEY_TIME   0x000d1c    program     static /Users/mreiter/Desktop/AER201/botL.X/main.asm
             _.org_2_0D32   0x000d32    program     static /Users/mreiter/Desktop/AER201/botL.X/main.asm
           DisplayExeTime   0x000d38    program     static /Users/mreiter/Desktop/AER201/botL.X/main.asm
                  _90loop   0x000d62    program     static /Users/mreiter/Desktop/AER201/botL.X/main.asm
        NoSkipDispExeTime   0x000d76    program     static /Users/mreiter/Desktop/AER201/botL.X/main.asm
          SkipDispExeTime   0x000dc8    program     static /Users/mreiter/Desktop/AER201/botL.X/main.asm
               DispOpSort   0x000dca    program     static /Users/mreiter/Desktop/AER201/botL.X/main.asm
                  _95loop   0x000df4    program     static /Users/mreiter/Desktop/AER201/botL.X/main.asm
         NoSkipDispOpSort   0x000e06    program     static /Users/mreiter/Desktop/AER201/botL.X/main.asm
           SkipDispOpSort   0x000ea0    program     static /Users/mreiter/Desktop/AER201/botL.X/main.asm
                DispOpRTC   0x000ea2    program     static /Users/mreiter/Desktop/AER201/botL.X/main.asm
                 _101loop   0x000ecc    program     static /Users/mreiter/Desktop/AER201/botL.X/main.asm
          NoSkipDispOpRTC   0x000ede    program     static /Users/mreiter/Desktop/AER201/botL.X/main.asm
            SkipDispOpRTC   0x000f3e    program     static /Users/mreiter/Desktop/AER201/botL.X/main.asm
         DispOpRTC_Helper   0x000f40    program     static /Users/mreiter/Desktop/AER201/botL.X/main.asm
                  Welcome   0x000f7a    program     static /Users/mreiter/Desktop/AER201/botL.X/main.asm
                     Team   0x000f80    program     static /Users/mreiter/Desktop/AER201/botL.X/main.asm
                  StandBy   0x000f8a    program     static /Users/mreiter/Desktop/AER201/botL.X/main.asm
                     Log1   0x000f92    program     static /Users/mreiter/Desktop/AER201/botL.X/main.asm
                     Log2   0x000f98    program     static /Users/mreiter/Desktop/AER201/botL.X/main.asm
                 LogInfo1   0x000fa6    program     static /Users/mreiter/Desktop/AER201/botL.X/main.asm
                 LogInfo2   0x000fae    program     static /Users/mreiter/Desktop/AER201/botL.X/main.asm
                 PermLog1   0x000fb8    program     static /Users/mreiter/Desktop/AER201/botL.X/main.asm
                 PermLog2   0x000fc8    program     static /Users/mreiter/Desktop/AER201/botL.X/main.asm
                     Exe1   0x000fd4    program     static /Users/mreiter/Desktop/AER201/botL.X/main.asm
                     Exe2   0x000fe0    program     static /Users/mreiter/Desktop/AER201/botL.X/main.asm
                      PC1   0x000fe8    program     static /Users/mreiter/Desktop/AER201/botL.X/main.asm
                      PC2   0x000ff6    program     static /Users/mreiter/Desktop/AER201/botL.X/main.asm
               PCTransfer   0x001000    program     static /Users/mreiter/Desktop/AER201/botL.X/main.asm
               PCComplete   0x001010    program     static /Users/mreiter/Desktop/AER201/botL.X/main.asm
                     SAVE   0x00101a    program     static /Users/mreiter/Desktop/AER201/botL.X/main.asm
                   NoData   0x001024    program     static /Users/mreiter/Desktop/AER201/botL.X/main.asm
                  InitLCD   0x001028    program     extern /Users/mreiter/Desktop/AER201/botL.X/lcd.asm
                   WR_INS   0x001080    program     extern /Users/mreiter/Desktop/AER201/botL.X/lcd.asm
                  WR_DATA   0x00109c    program     extern /Users/mreiter/Desktop/AER201/botL.X/lcd.asm
                   WrtLCD   0x0010be    program     extern /Users/mreiter/Desktop/AER201/botL.X/lcd.asm
                   ClrLCD   0x0010d4    program     extern /Users/mreiter/Desktop/AER201/botL.X/lcd.asm
                   ClkLCD   0x0010e2    program     extern /Users/mreiter/Desktop/AER201/botL.X/lcd.asm
              _.code_00C6   0x0010ee    program     static /Users/mreiter/Desktop/AER201/botL.X/lcd.asm
                   LCD_L1   0x0010f4    program     extern /Users/mreiter/Desktop/AER201/botL.X/lcd.asm
                   LCD_L2   0x0010fc    program     extern /Users/mreiter/Desktop/AER201/botL.X/lcd.asm
                   MovMSB   0x001104    program     static /Users/mreiter/Desktop/AER201/botL.X/lcd.asm
             lcdLongDelay   0x00110e    program     static /Users/mreiter/Desktop/AER201/botL.X/lcd.asm
                 LLD_LOOP   0x001112    program     static /Users/mreiter/Desktop/AER201/botL.X/lcd.asm
              _.code_00F0   0x001118    program     static /Users/mreiter/Desktop/AER201/botL.X/lcd.asm
                delay44us   0x001124    program     extern /Users/mreiter/Desktop/AER201/botL.X/lcd.asm
            Delay44usLoop   0x001128    program     static /Users/mreiter/Desktop/AER201/botL.X/lcd.asm
                 delay5ms   0x001130    program     extern /Users/mreiter/Desktop/AER201/botL.X/lcd.asm
             Delay5msLoop   0x001138    program     static /Users/mreiter/Desktop/AER201/botL.X/lcd.asm
                       d2   0x001140    program     static /Users/mreiter/Desktop/AER201/botL.X/lcd.asm
         i2c_common_setup   0x001146    program     extern /Users/mreiter/Desktop/AER201/botL.X/i2c_common.asm
              _.code_001C   0x001162    program     static /Users/mreiter/Desktop/AER201/botL.X/i2c_common.asm
                write_rtc   0x001168    program     extern /Users/mreiter/Desktop/AER201/botL.X/i2c_common.asm
              _.code_002A   0x001170    program     static /Users/mreiter/Desktop/AER201/botL.X/i2c_common.asm
              _.code_0032   0x001178    program     static /Users/mreiter/Desktop/AER201/botL.X/i2c_common.asm
              _.code_0038   0x00117e    program     static /Users/mreiter/Desktop/AER201/botL.X/i2c_common.asm
              _.code_004C   0x001192    program     static /Users/mreiter/Desktop/AER201/botL.X/i2c_common.asm
              _.code_0052   0x001198    program     static /Users/mreiter/Desktop/AER201/botL.X/i2c_common.asm
              _.code_0066   0x0011ac    program     static /Users/mreiter/Desktop/AER201/botL.X/i2c_common.asm
              _.code_006C   0x0011b2    program     static /Users/mreiter/Desktop/AER201/botL.X/i2c_common.asm
              WR_ERR1_RTC   0x0011c4    program     static /Users/mreiter/Desktop/AER201/botL.X/i2c_common.asm
              WR_ERR2_RTC   0x0011ce    program     static /Users/mreiter/Desktop/AER201/botL.X/i2c_common.asm
              WR_ERR3_RTC   0x0011da    program     static /Users/mreiter/Desktop/AER201/botL.X/i2c_common.asm
               WR_END_RTC   0x0011e4    program     static /Users/mreiter/Desktop/AER201/botL.X/i2c_common.asm
              _.code_00A2   0x0011e8    program     static /Users/mreiter/Desktop/AER201/botL.X/i2c_common.asm
                 read_rtc   0x0011ee    program     extern /Users/mreiter/Desktop/AER201/botL.X/i2c_common.asm
              _.code_00B0   0x0011f6    program     static /Users/mreiter/Desktop/AER201/botL.X/i2c_common.asm
              _.code_00B8   0x0011fe    program     static /Users/mreiter/Desktop/AER201/botL.X/i2c_common.asm
              _.code_00BE   0x001204    program     static /Users/mreiter/Desktop/AER201/botL.X/i2c_common.asm
              _.code_00D2   0x001218    program     static /Users/mreiter/Desktop/AER201/botL.X/i2c_common.asm
              _.code_00D8   0x00121e    program     static /Users/mreiter/Desktop/AER201/botL.X/i2c_common.asm
              _.code_00EE   0x001234    program     static /Users/mreiter/Desktop/AER201/botL.X/i2c_common.asm
              _.code_00F6   0x00123c    program     static /Users/mreiter/Desktop/AER201/botL.X/i2c_common.asm
              _.code_00FC   0x001242    program     static /Users/mreiter/Desktop/AER201/botL.X/i2c_common.asm
              _.code_010E   0x001254    program     static /Users/mreiter/Desktop/AER201/botL.X/i2c_common.asm
                  _waitl0   0x001266    program     static /Users/mreiter/Desktop/AER201/botL.X/i2c_common.asm
              RD_ERR1_RTC   0x001270    program     static /Users/mreiter/Desktop/AER201/botL.X/i2c_common.asm
              RD_ERR2_RTC   0x00127a    program     static /Users/mreiter/Desktop/AER201/botL.X/i2c_common.asm
              RD_ERR3_RTC   0x001284    program     static /Users/mreiter/Desktop/AER201/botL.X/i2c_common.asm
               RD_END_RTC   0x00128e    program     static /Users/mreiter/Desktop/AER201/botL.X/i2c_common.asm
              _.code_014C   0x001292    program     static /Users/mreiter/Desktop/AER201/botL.X/i2c_common.asm
              rtc_convert   0x001298    program     extern /Users/mreiter/Desktop/AER201/botL.X/i2c_common.asm
                 INIT_RTC   0x0012ae    program     extern /Users/mreiter/Desktop/AER201/botL.X/i2c_common.asm
              _.code_0170   0x0012b6    program     static /Users/mreiter/Desktop/AER201/botL.X/i2c_common.asm
              _.code_0178   0x0012be    program     static /Users/mreiter/Desktop/AER201/botL.X/i2c_common.asm
              _.code_017E   0x0012c4    program     static /Users/mreiter/Desktop/AER201/botL.X/i2c_common.asm
              _.code_018A   0x0012d0    program     static /Users/mreiter/Desktop/AER201/botL.X/i2c_common.asm
              _.code_0190   0x0012d6    program     static /Users/mreiter/Desktop/AER201/botL.X/i2c_common.asm
              _.code_019C   0x0012e2    program     static /Users/mreiter/Desktop/AER201/botL.X/i2c_common.asm
              _.code_01A2   0x0012e8    program     static /Users/mreiter/Desktop/AER201/botL.X/i2c_common.asm
              _.code_01AE   0x0012f4    program     static /Users/mreiter/Desktop/AER201/botL.X/i2c_common.asm
          READ_COLOUR_I2C   0x0012fa    program     extern /Users/mreiter/Desktop/AER201/botL.X/i2c_common.asm
              _.code_01BC   0x001302    program     static /Users/mreiter/Desktop/AER201/botL.X/i2c_common.asm
              _.code_01C4   0x00130a    program     static /Users/mreiter/Desktop/AER201/botL.X/i2c_common.asm
              _.code_01CA   0x001310    program     static /Users/mreiter/Desktop/AER201/botL.X/i2c_common.asm
              _.code_01E0   0x001326    program     static /Users/mreiter/Desktop/AER201/botL.X/i2c_common.asm
              _.code_01E6   0x00132c    program     static /Users/mreiter/Desktop/AER201/botL.X/i2c_common.asm
              _.code_01F8   0x00133e    program     static /Users/mreiter/Desktop/AER201/botL.X/i2c_common.asm
              _.code_0200   0x001346    program     static /Users/mreiter/Desktop/AER201/botL.X/i2c_common.asm
              _.code_0206   0x00134c    program     static /Users/mreiter/Desktop/AER201/botL.X/i2c_common.asm
              _.code_0218   0x00135e    program     static /Users/mreiter/Desktop/AER201/botL.X/i2c_common.asm
                  _waitl1   0x001370    program     static /Users/mreiter/Desktop/AER201/botL.X/i2c_common.asm
                  RD_ERR1   0x00137a    program     static /Users/mreiter/Desktop/AER201/botL.X/i2c_common.asm
                  RD_ERR2   0x001384    program     static /Users/mreiter/Desktop/AER201/botL.X/i2c_common.asm
                  RD_ERR3   0x00138e    program     static /Users/mreiter/Desktop/AER201/botL.X/i2c_common.asm
                   RD_END   0x001398    program     static /Users/mreiter/Desktop/AER201/botL.X/i2c_common.asm
              _.code_0256   0x00139c    program     static /Users/mreiter/Desktop/AER201/botL.X/i2c_common.asm
         WRITE_COLOUR_I2C   0x0013a2    program     extern /Users/mreiter/Desktop/AER201/botL.X/i2c_common.asm
              _.code_0264   0x0013aa    program     static /Users/mreiter/Desktop/AER201/botL.X/i2c_common.asm
              _.code_026C   0x0013b2    program     static /Users/mreiter/Desktop/AER201/botL.X/i2c_common.asm
              _.code_0272   0x0013b8    program     static /Users/mreiter/Desktop/AER201/botL.X/i2c_common.asm
              _.code_0288   0x0013ce    program     static /Users/mreiter/Desktop/AER201/botL.X/i2c_common.asm
              _.code_028E   0x0013d4    program     static /Users/mreiter/Desktop/AER201/botL.X/i2c_common.asm
              _.code_02A4   0x0013ea    program     static /Users/mreiter/Desktop/AER201/botL.X/i2c_common.asm
              _.code_02AA   0x0013f0    program     static /Users/mreiter/Desktop/AER201/botL.X/i2c_common.asm
                  WR_ERR1   0x001402    program     static /Users/mreiter/Desktop/AER201/botL.X/i2c_common.asm
                  WR_ERR2   0x00140c    program     static /Users/mreiter/Desktop/AER201/botL.X/i2c_common.asm
                  WR_ERR3   0x001418    program     static /Users/mreiter/Desktop/AER201/botL.X/i2c_common.asm
                   WR_END   0x001422    program     static /Users/mreiter/Desktop/AER201/botL.X/i2c_common.asm
              _.code_02E0   0x001426    program     static /Users/mreiter/Desktop/AER201/botL.X/i2c_common.asm
             INIT_ARDUINO   0x00142c    program     extern /Users/mreiter/Desktop/AER201/botL.X/i2c_common.asm
              _.code_02EE   0x001434    program     static /Users/mreiter/Desktop/AER201/botL.X/i2c_common.asm
              _.code_02F6   0x00143c    program     static /Users/mreiter/Desktop/AER201/botL.X/i2c_common.asm
              _.code_02FC   0x001442    program     static /Users/mreiter/Desktop/AER201/botL.X/i2c_common.asm
              _.code_030E   0x001454    program     static /Users/mreiter/Desktop/AER201/botL.X/i2c_common.asm
             READ_ARDUINO   0x00145a    program     extern /Users/mreiter/Desktop/AER201/botL.X/i2c_common.asm
              _.code_031C   0x001462    program     static /Users/mreiter/Desktop/AER201/botL.X/i2c_common.asm
              _.code_0324   0x00146a    program     static /Users/mreiter/Desktop/AER201/botL.X/i2c_common.asm
              _.code_032C   0x001472    program     static /Users/mreiter/Desktop/AER201/botL.X/i2c_common.asm
              _.code_0332   0x001478    program     static /Users/mreiter/Desktop/AER201/botL.X/i2c_common.asm
              _.code_033E   0x001484    program     static /Users/mreiter/Desktop/AER201/botL.X/i2c_common.asm
                  _waitl2   0x001494    program     static /Users/mreiter/Desktop/AER201/botL.X/i2c_common.asm
              _.code_0358   0x00149e    program     static /Users/mreiter/Desktop/AER201/botL.X/i2c_common.asm
                CHECK_ACK   0x0014a4    program     extern /Users/mreiter/Desktop/AER201/botL.X/i2c.asm
                I2C_ACKDT   0x0014a4    program     extern /Users/mreiter/Desktop/AER201/botL.X/i2c.asm
                 I2C_temp   0x0014a4    program     static /Users/mreiter/Desktop/AER201/botL.X/i2c.asm
               CHECK_NACK   0x0014a8    program     extern /Users/mreiter/Desktop/AER201/botL.X/i2c.asm
                TEST_NACK   0x0014ac    program     static /Users/mreiter/Desktop/AER201/botL.X/i2c.asm
          I2C_Master_INIT   0x0014b4    program     extern /Users/mreiter/Desktop/AER201/botL.X/i2c.asm
          I2C_Master_WAIT   0x0014c6    program     extern /Users/mreiter/Desktop/AER201/botL.X/i2c.asm
                     WAIT   0x0014c6    program     static /Users/mreiter/Desktop/AER201/botL.X/i2c.asm
         I2C_Master_START   0x0014d6    program     extern /Users/mreiter/Desktop/AER201/botL.X/i2c.asm
        I2C_Master_RSTART   0x0014de    program     extern /Users/mreiter/Desktop/AER201/botL.X/i2c.asm
          I2C_Master_STOP   0x0014e6    program     extern /Users/mreiter/Desktop/AER201/botL.X/i2c.asm
         I2C_Master_WRITE   0x0014ee    program     extern /Users/mreiter/Desktop/AER201/botL.X/i2c.asm
                  HOLD_UP   0x0014f4    program     static /Users/mreiter/Desktop/AER201/botL.X/i2c.asm
          I2C_Master_READ   0x0014fc    program     extern /Users/mreiter/Desktop/AER201/botL.X/i2c.asm
                     LOOP   0x001502    program     static /Users/mreiter/Desktop/AER201/botL.X/i2c.asm
           I2C_Master_ACK   0x00150a    program     extern /Users/mreiter/Desktop/AER201/botL.X/i2c.asm
                 TEST_ACK   0x00150e    program     static /Users/mreiter/Desktop/AER201/botL.X/i2c.asm
               regaddress   0x000080       data     extern /Users/mreiter/Desktop/AER201/botL.X/i2c_common.asm
                 databyte   0x000081       data     extern /Users/mreiter/Desktop/AER201/botL.X/i2c_common.asm
                 datachar   0x000082       data     extern /Users/mreiter/Desktop/AER201/botL.X/i2c_common.asm
             data_colourL   0x000083       data     extern /Users/mreiter/Desktop/AER201/botL.X/i2c_common.asm
             data_colourH   0x000084       data     extern /Users/mreiter/Desktop/AER201/botL.X/i2c_common.asm
               tens_digit   0x000085       data     extern /Users/mreiter/Desktop/AER201/botL.X/i2c_common.asm
               ones_digit   0x000086       data     extern /Users/mreiter/Desktop/AER201/botL.X/i2c_common.asm
           convert_buffer   0x000087       data     extern /Users/mreiter/Desktop/AER201/botL.X/i2c_common.asm


