MPLINK 5.08, LINKER
Linker Map File - Created Sun Feb 12 13:46:54 2017

                                 Section Info
                  Section       Type    Address   Location Size(Bytes)
                ---------  ---------  ---------  ---------  ---------
                   .org_0       code   0x000000    program   0x000004
                   .cinit    romdata   0x000004    program   0x000002
                   .org_1       code   0x000008    program   0x000004
                   .org_2       code   0x000018    program   0x000a88
                    .code       code   0x000aa0    program   0x00039c
.config_300001_BUILD/DEFAULT/PRODUCTION/MAIN.O    romdata   0x300001    program   0x000001
.config_300002_BUILD/DEFAULT/PRODUCTION/MAIN.O    romdata   0x300002    program   0x000001
.config_300003_BUILD/DEFAULT/PRODUCTION/MAIN.O    romdata   0x300003    program   0x000001
.config_300005_BUILD/DEFAULT/PRODUCTION/MAIN.O    romdata   0x300005    program   0x000001
.config_300006_BUILD/DEFAULT/PRODUCTION/MAIN.O    romdata   0x300006    program   0x000001
.config_300008_BUILD/DEFAULT/PRODUCTION/MAIN.O    romdata   0x300008    program   0x000001
.config_300009_BUILD/DEFAULT/PRODUCTION/MAIN.O    romdata   0x300009    program   0x000001
.config_30000A_BUILD/DEFAULT/PRODUCTION/MAIN.O    romdata   0x30000a    program   0x000001
.config_30000B_BUILD/DEFAULT/PRODUCTION/MAIN.O    romdata   0x30000b    program   0x000001
.config_30000C_BUILD/DEFAULT/PRODUCTION/MAIN.O    romdata   0x30000c    program   0x000001
.config_30000D_BUILD/DEFAULT/PRODUCTION/MAIN.O    romdata   0x30000d    program   0x000001
                   .udata      udata   0x000080       data   0x000006



                              Program Memory Usage 
                               Start         End      
                           ---------   ---------      
                            0x000000    0x000005      
                            0x000008    0x00000b      
                            0x000018    0x000e3b      
                            0x300001    0x300003      
                            0x300005    0x300006      
                            0x300008    0x30000d      
            3641 out of 66584 program addresses used, program memory utilization is 5%



                              Symbols - Sorted by Name
                     Name    Address   Location    Storage File                     
                ---------  ---------  ---------  --------- ---------                
                CHECK_ACK   0x000dcc    program     extern /Users/mreiter/Desktop/AER201/botL.X/i2c.asm
               CHECK_NACK   0x000dd0    program     extern /Users/mreiter/Desktop/AER201/botL.X/i2c.asm
           ClearEEPROM_21   0x0008da    program     static /Users/mreiter/Desktop/AER201/botL.X/main.asm
                ClearNext   0x0008e2    program     static /Users/mreiter/Desktop/AER201/botL.X/main.asm
                   ClkLCD   0x000c2e    program     extern /Users/mreiter/Desktop/AER201/botL.X/lcd.asm
                   ClrLCD   0x000c20    program     extern /Users/mreiter/Desktop/AER201/botL.X/lcd.asm
                   Cycles   0x000872    program     static /Users/mreiter/Desktop/AER201/botL.X/main.asm
              DISPLAY_RTC   0x000738    program     static /Users/mreiter/Desktop/AER201/botL.X/main.asm
               Delay200us   0x00085a    program     static /Users/mreiter/Desktop/AER201/botL.X/main.asm
            Delay44usLoop   0x000c74    program     static /Users/mreiter/Desktop/AER201/botL.X/lcd.asm
                Delay50ms   0x000868    program     static /Users/mreiter/Desktop/AER201/botL.X/main.asm
             Delay5msLoop   0x000c84    program     static /Users/mreiter/Desktop/AER201/botL.X/lcd.asm
                 Delay5us   0x00084c    program     static /Users/mreiter/Desktop/AER201/botL.X/main.asm
                DispOpRTC   0x0009c2    program     static /Users/mreiter/Desktop/AER201/botL.X/main.asm
         DispOpRTC_Helper   0x000a66    program     static /Users/mreiter/Desktop/AER201/botL.X/main.asm
              DisplayTime   0x000950    program     static /Users/mreiter/Desktop/AER201/botL.X/main.asm
             END_ISR_HIGH   0x00008c    program     static /Users/mreiter/Desktop/AER201/botL.X/main.asm
              END_ISR_LOW   0x0000b2    program     static /Users/mreiter/Desktop/AER201/botL.X/main.asm
                EXECUTION   0x000212    program     static /Users/mreiter/Desktop/AER201/botL.X/main.asm
                 EXIT_EXE   0x00027a    program     static /Users/mreiter/Desktop/AER201/botL.X/main.asm
                     Exe1   0x000afa    program     static /Users/mreiter/Desktop/AER201/botL.X/main.asm
                     Exe2   0x000b06    program     static /Users/mreiter/Desktop/AER201/botL.X/main.asm
                 HOLD_EXE   0x00025e    program     static /Users/mreiter/Desktop/AER201/botL.X/main.asm
                 HOLD_LOG   0x0003d8    program     static /Users/mreiter/Desktop/AER201/botL.X/main.asm
            HOLD_LOG_INFO   0x000446    program     static /Users/mreiter/Desktop/AER201/botL.X/main.asm
                  HOLD_PC   0x000678    program     static /Users/mreiter/Desktop/AER201/botL.X/main.asm
            HOLD_PERM_LOG   0x00049e    program     static /Users/mreiter/Desktop/AER201/botL.X/main.asm
                HOLD_PLOG   0x000614    program     static /Users/mreiter/Desktop/AER201/botL.X/main.asm
             HOLD_STANDBY   0x0001b4    program     static /Users/mreiter/Desktop/AER201/botL.X/main.asm
                  HOLD_UP   0x000e1c    program     static /Users/mreiter/Desktop/AER201/botL.X/i2c.asm
                I2C_ACKDT   0x000dcc    program     extern /Users/mreiter/Desktop/AER201/botL.X/i2c.asm
           I2C_Master_ACK   0x000e32    program     extern /Users/mreiter/Desktop/AER201/botL.X/i2c.asm
          I2C_Master_INIT   0x000ddc    program     extern /Users/mreiter/Desktop/AER201/botL.X/i2c.asm
          I2C_Master_READ   0x000e24    program     extern /Users/mreiter/Desktop/AER201/botL.X/i2c.asm
        I2C_Master_RSTART   0x000e06    program     extern /Users/mreiter/Desktop/AER201/botL.X/i2c.asm
         I2C_Master_START   0x000dfe    program     extern /Users/mreiter/Desktop/AER201/botL.X/i2c.asm
          I2C_Master_STOP   0x000e0e    program     extern /Users/mreiter/Desktop/AER201/botL.X/i2c.asm
          I2C_Master_WAIT   0x000dee    program     extern /Users/mreiter/Desktop/AER201/botL.X/i2c.asm
         I2C_Master_WRITE   0x000e16    program     extern /Users/mreiter/Desktop/AER201/botL.X/i2c.asm
                 I2C_temp   0x000dcc    program     static /Users/mreiter/Desktop/AER201/botL.X/i2c.asm
                     INIT   0x0000ca    program     static /Users/mreiter/Desktop/AER201/botL.X/main.asm
               INIT_USART   0x00083c    program     static /Users/mreiter/Desktop/AER201/botL.X/main.asm
                 ISR_HIGH   0x00001c    program     static /Users/mreiter/Desktop/AER201/botL.X/main.asm
                  ISR_LOW   0x000096    program     static /Users/mreiter/Desktop/AER201/botL.X/main.asm
                  InitLCD   0x000b74    program     extern /Users/mreiter/Desktop/AER201/botL.X/lcd.asm
                   LCD_L1   0x000c40    program     extern /Users/mreiter/Desktop/AER201/botL.X/lcd.asm
                   LCD_L2   0x000c48    program     extern /Users/mreiter/Desktop/AER201/botL.X/lcd.asm
                 LLD_LOOP   0x000c5e    program     static /Users/mreiter/Desktop/AER201/botL.X/lcd.asm
                      LOG   0x000380    program     static /Users/mreiter/Desktop/AER201/botL.X/main.asm
                 LOG_INFO   0x00040a    program     static /Users/mreiter/Desktop/AER201/botL.X/main.asm
                     LOOP   0x000e2a    program     static /Users/mreiter/Desktop/AER201/botL.X/i2c.asm
                     Log1   0x000ab8    program     static /Users/mreiter/Desktop/AER201/botL.X/main.asm
                     Log2   0x000abe    program     static /Users/mreiter/Desktop/AER201/botL.X/main.asm
                 LogInfo1   0x000acc    program     static /Users/mreiter/Desktop/AER201/botL.X/main.asm
                 LogInfo2   0x000ad4    program     static /Users/mreiter/Desktop/AER201/botL.X/main.asm
                   MovMSB   0x000c50    program     static /Users/mreiter/Desktop/AER201/botL.X/lcd.asm
                   NoData   0x000b60    program     static /Users/mreiter/Desktop/AER201/botL.X/main.asm
          NoSkipDispOpRTC   0x000a02    program     static /Users/mreiter/Desktop/AER201/botL.X/main.asm
         NoSkipDispOpTime   0x00098c    program     static /Users/mreiter/Desktop/AER201/botL.X/main.asm
                  Op_Time   0x000b3e    program     static /Users/mreiter/Desktop/AER201/botL.X/main.asm
                      PC1   0x000b0e    program     static /Users/mreiter/Desktop/AER201/botL.X/main.asm
                      PC2   0x000b1c    program     static /Users/mreiter/Desktop/AER201/botL.X/main.asm
                   PCLog1   0x000b64    program     static /Users/mreiter/Desktop/AER201/botL.X/main.asm
               PCTransfer   0x000b26    program     static /Users/mreiter/Desktop/AER201/botL.X/main.asm
                  PC_MODE   0x000630    program     static /Users/mreiter/Desktop/AER201/botL.X/main.asm
              PC_TRANSFER   0x0006aa    program     static /Users/mreiter/Desktop/AER201/botL.X/main.asm
                 PERM_LOG   0x000462    program     static /Users/mreiter/Desktop/AER201/botL.X/main.asm
                     PLOG   0x000580    program     static /Users/mreiter/Desktop/AER201/botL.X/main.asm
                 PermLog1   0x000ade    program     static /Users/mreiter/Desktop/AER201/botL.X/main.asm
                 PermLog2   0x000aee    program     static /Users/mreiter/Desktop/AER201/botL.X/main.asm
                   RD_END   0x000dae    program     static /Users/mreiter/Desktop/AER201/botL.X/i2c_common.asm
                  RD_ERR1   0x000d90    program     static /Users/mreiter/Desktop/AER201/botL.X/i2c_common.asm
                  RD_ERR2   0x000d9a    program     static /Users/mreiter/Desktop/AER201/botL.X/i2c_common.asm
                  RD_ERR3   0x000da4    program     static /Users/mreiter/Desktop/AER201/botL.X/i2c_common.asm
                 READ_KEY   0x000920    program     static /Users/mreiter/Desktop/AER201/botL.X/main.asm
            READ_KEY_TIME   0x000934    program     static /Users/mreiter/Desktop/AER201/botL.X/main.asm
                 RTC_INIT   0x0006ce    program     static /Users/mreiter/Desktop/AER201/botL.X/main.asm
                     SAVE   0x000b46    program     static /Users/mreiter/Desktop/AER201/botL.X/main.asm
                SAVE_TIME   0x0006dc    program     static /Users/mreiter/Desktop/AER201/botL.X/main.asm
                 SET_TIME   0x0007d4    program     static /Users/mreiter/Desktop/AER201/botL.X/main.asm
                  STANDBY   0x000196    program     static /Users/mreiter/Desktop/AER201/botL.X/main.asm
                   Safety   0x000b50    program     static /Users/mreiter/Desktop/AER201/botL.X/main.asm
                 SaveData   0x000284    program     static /Users/mreiter/Desktop/AER201/botL.X/main.asm
                ShiftLoop   0x0002b6    program     static /Users/mreiter/Desktop/AER201/botL.X/main.asm
            SkipDispOpRTC   0x000a64    program     static /Users/mreiter/Desktop/AER201/botL.X/main.asm
           SkipDispOpTime   0x0009c0    program     static /Users/mreiter/Desktop/AER201/botL.X/main.asm
                  StandBy   0x000ab0    program     static /Users/mreiter/Desktop/AER201/botL.X/main.asm
                  Stopped   0x000b36    program     static /Users/mreiter/Desktop/AER201/botL.X/main.asm
                 TEST_ACK   0x000e36    program     static /Users/mreiter/Desktop/AER201/botL.X/i2c.asm
                TEST_NACK   0x000dd4    program     static /Users/mreiter/Desktop/AER201/botL.X/i2c.asm
                     Team   0x000aa6    program     static /Users/mreiter/Desktop/AER201/botL.X/main.asm
                     WAIT   0x000dee    program     static /Users/mreiter/Desktop/AER201/botL.X/i2c.asm
                  WR_DATA   0x000be8    program     extern /Users/mreiter/Desktop/AER201/botL.X/lcd.asm
                   WR_END   0x000d1c    program     static /Users/mreiter/Desktop/AER201/botL.X/i2c_common.asm
                  WR_ERR1   0x000cfc    program     static /Users/mreiter/Desktop/AER201/botL.X/i2c_common.asm
                  WR_ERR2   0x000d06    program     static /Users/mreiter/Desktop/AER201/botL.X/i2c_common.asm
                  WR_ERR3   0x000d12    program     static /Users/mreiter/Desktop/AER201/botL.X/i2c_common.asm
                   WR_INS   0x000bcc    program     extern /Users/mreiter/Desktop/AER201/botL.X/lcd.asm
                  Welcome   0x000aa0    program     static /Users/mreiter/Desktop/AER201/botL.X/main.asm
              WriteEE_RTC   0x00087c    program     static /Users/mreiter/Desktop/AER201/botL.X/main.asm
                   WrtLCD   0x000c0a    program     extern /Users/mreiter/Desktop/AER201/botL.X/lcd.asm
              _.code_0018   0x000caa    program     static /Users/mreiter/Desktop/AER201/botL.X/i2c_common.asm
              _.code_0026   0x000cb8    program     static /Users/mreiter/Desktop/AER201/botL.X/i2c_common.asm
              _.code_002E   0x000cc0    program     static /Users/mreiter/Desktop/AER201/botL.X/i2c_common.asm
              _.code_0034   0x000cc6    program     static /Users/mreiter/Desktop/AER201/botL.X/i2c_common.asm
              _.code_0042   0x000cd4    program     static /Users/mreiter/Desktop/AER201/botL.X/i2c_common.asm
              _.code_0048   0x000cda    program     static /Users/mreiter/Desktop/AER201/botL.X/i2c_common.asm
              _.code_0056   0x000ce8    program     static /Users/mreiter/Desktop/AER201/botL.X/i2c_common.asm
              _.code_005C   0x000cee    program     static /Users/mreiter/Desktop/AER201/botL.X/i2c_common.asm
              _.code_008E   0x000d20    program     static /Users/mreiter/Desktop/AER201/botL.X/i2c_common.asm
              _.code_009C   0x000d2e    program     static /Users/mreiter/Desktop/AER201/botL.X/i2c_common.asm
              _.code_00A4   0x000d36    program     static /Users/mreiter/Desktop/AER201/botL.X/i2c_common.asm
              _.code_00AA   0x000d3c    program     static /Users/mreiter/Desktop/AER201/botL.X/i2c_common.asm
              _.code_00B8   0x000d4a    program     static /Users/mreiter/Desktop/AER201/botL.X/i2c_common.asm
              _.code_00BE   0x000d50    program     static /Users/mreiter/Desktop/AER201/botL.X/i2c_common.asm
              _.code_00C6   0x000c3a    program     static /Users/mreiter/Desktop/AER201/botL.X/lcd.asm
              _.code_00CC   0x000d5e    program     static /Users/mreiter/Desktop/AER201/botL.X/i2c_common.asm
              _.code_00D4   0x000d66    program     static /Users/mreiter/Desktop/AER201/botL.X/i2c_common.asm
              _.code_00DA   0x000d6c    program     static /Users/mreiter/Desktop/AER201/botL.X/i2c_common.asm
              _.code_00E8   0x000d7a    program     static /Users/mreiter/Desktop/AER201/botL.X/i2c_common.asm
              _.code_00F0   0x000c64    program     static /Users/mreiter/Desktop/AER201/botL.X/lcd.asm
              _.code_0120   0x000db2    program     static /Users/mreiter/Desktop/AER201/botL.X/i2c_common.asm
             _.org_2_02DC   0x0002dc    program     static /Users/mreiter/Desktop/AER201/botL.X/main.asm
             _.org_2_02F4   0x0002f4    program     static /Users/mreiter/Desktop/AER201/botL.X/main.asm
             _.org_2_032E   0x00032e    program     static /Users/mreiter/Desktop/AER201/botL.X/main.asm
             _.org_2_0346   0x000346    program     static /Users/mreiter/Desktop/AER201/botL.X/main.asm
             _.org_2_035C   0x00035c    program     static /Users/mreiter/Desktop/AER201/botL.X/main.asm
             _.org_2_0374   0x000374    program     static /Users/mreiter/Desktop/AER201/botL.X/main.asm
             _.org_2_088A   0x00088a    program     static /Users/mreiter/Desktop/AER201/botL.X/main.asm
             _.org_2_08A2   0x0008a2    program     static /Users/mreiter/Desktop/AER201/botL.X/main.asm
             _.org_2_08B8   0x0008b8    program     static /Users/mreiter/Desktop/AER201/botL.X/main.asm
             _.org_2_08D0   0x0008d0    program     static /Users/mreiter/Desktop/AER201/botL.X/main.asm
             _.org_2_08F0   0x0008f0    program     static /Users/mreiter/Desktop/AER201/botL.X/main.asm
             _.org_2_0908   0x000908    program     static /Users/mreiter/Desktop/AER201/botL.X/main.asm
             _.org_2_092E   0x00092e    program     static /Users/mreiter/Desktop/AER201/botL.X/main.asm
             _.org_2_094A   0x00094a    program     static /Users/mreiter/Desktop/AER201/botL.X/main.asm
                  _10loop   0x00018c    program     static /Users/mreiter/Desktop/AER201/botL.X/main.asm
                  _11loop   0x0001aa    program     static /Users/mreiter/Desktop/AER201/botL.X/main.asm
                  _12Exit   0x0001cc    program     static /Users/mreiter/Desktop/AER201/botL.X/main.asm
                  _12Next   0x0001c0    program     static /Users/mreiter/Desktop/AER201/botL.X/main.asm
                  _13Exit   0x0001e2    program     static /Users/mreiter/Desktop/AER201/botL.X/main.asm
                  _13Next   0x0001d6    program     static /Users/mreiter/Desktop/AER201/botL.X/main.asm
                  _14Exit   0x0001f8    program     static /Users/mreiter/Desktop/AER201/botL.X/main.asm
                  _14Next   0x0001ec    program     static /Users/mreiter/Desktop/AER201/botL.X/main.asm
                  _15Exit   0x00020e    program     static /Users/mreiter/Desktop/AER201/botL.X/main.asm
                  _15Next   0x000202    program     static /Users/mreiter/Desktop/AER201/botL.X/main.asm
                  _16loop   0x00022c    program     static /Users/mreiter/Desktop/AER201/botL.X/main.asm
                  _17loop   0x00024a    program     static /Users/mreiter/Desktop/AER201/botL.X/main.asm
                  _18Exit   0x000276    program     static /Users/mreiter/Desktop/AER201/botL.X/main.asm
                  _18Next   0x00026a    program     static /Users/mreiter/Desktop/AER201/botL.X/main.asm
                  _19loop   0x000298    program     static /Users/mreiter/Desktop/AER201/botL.X/main.asm
                  _24loop   0x000394    program     static /Users/mreiter/Desktop/AER201/botL.X/main.asm
                  _27Exit   0x0003f0    program     static /Users/mreiter/Desktop/AER201/botL.X/main.asm
                  _27Next   0x0003e4    program     static /Users/mreiter/Desktop/AER201/botL.X/main.asm
                  _28Exit   0x000406    program     static /Users/mreiter/Desktop/AER201/botL.X/main.asm
                  _28Next   0x0003fa    program     static /Users/mreiter/Desktop/AER201/botL.X/main.asm
                  _29loop   0x00041e    program     static /Users/mreiter/Desktop/AER201/botL.X/main.asm
                 _2endBCD   0x000058    program     static /Users/mreiter/Desktop/AER201/botL.X/main.asm
                   _2ones   0x000052    program     static /Users/mreiter/Desktop/AER201/botL.X/main.asm
                  _30loop   0x00043c    program     static /Users/mreiter/Desktop/AER201/botL.X/main.asm
                  _31Exit   0x00045e    program     static /Users/mreiter/Desktop/AER201/botL.X/main.asm
                  _31Next   0x000452    program     static /Users/mreiter/Desktop/AER201/botL.X/main.asm
                  _32loop   0x000476    program     static /Users/mreiter/Desktop/AER201/botL.X/main.asm
                  _33loop   0x000494    program     static /Users/mreiter/Desktop/AER201/botL.X/main.asm
                  _34Exit   0x0004b6    program     static /Users/mreiter/Desktop/AER201/botL.X/main.asm
                  _34Next   0x0004aa    program     static /Users/mreiter/Desktop/AER201/botL.X/main.asm
                  _35Exit   0x0004cc    program     static /Users/mreiter/Desktop/AER201/botL.X/main.asm
                  _35Next   0x0004c0    program     static /Users/mreiter/Desktop/AER201/botL.X/main.asm
                  _36Exit   0x0004e2    program     static /Users/mreiter/Desktop/AER201/botL.X/main.asm
                  _36Next   0x0004d6    program     static /Users/mreiter/Desktop/AER201/botL.X/main.asm
                  _37Exit   0x0004f8    program     static /Users/mreiter/Desktop/AER201/botL.X/main.asm
                  _37Next   0x0004ec    program     static /Users/mreiter/Desktop/AER201/botL.X/main.asm
                  _38Exit   0x00050e    program     static /Users/mreiter/Desktop/AER201/botL.X/main.asm
                  _38Next   0x000502    program     static /Users/mreiter/Desktop/AER201/botL.X/main.asm
                  _39Exit   0x000524    program     static /Users/mreiter/Desktop/AER201/botL.X/main.asm
                  _39Next   0x000518    program     static /Users/mreiter/Desktop/AER201/botL.X/main.asm
                 _3endBCD   0x00008a    program     static /Users/mreiter/Desktop/AER201/botL.X/main.asm
                   _3ones   0x000084    program     static /Users/mreiter/Desktop/AER201/botL.X/main.asm
                  _40Exit   0x00053a    program     static /Users/mreiter/Desktop/AER201/botL.X/main.asm
                  _40Next   0x00052e    program     static /Users/mreiter/Desktop/AER201/botL.X/main.asm
                  _41Exit   0x000550    program     static /Users/mreiter/Desktop/AER201/botL.X/main.asm
                  _41Next   0x000544    program     static /Users/mreiter/Desktop/AER201/botL.X/main.asm
                  _42Exit   0x000566    program     static /Users/mreiter/Desktop/AER201/botL.X/main.asm
                  _42Next   0x00055a    program     static /Users/mreiter/Desktop/AER201/botL.X/main.asm
                  _43Exit   0x00057c    program     static /Users/mreiter/Desktop/AER201/botL.X/main.asm
                  _43Next   0x000570    program     static /Users/mreiter/Desktop/AER201/botL.X/main.asm
                  _44loop   0x000594    program     static /Users/mreiter/Desktop/AER201/botL.X/main.asm
                  _47Exit   0x00062c    program     static /Users/mreiter/Desktop/AER201/botL.X/main.asm
                  _47Next   0x000620    program     static /Users/mreiter/Desktop/AER201/botL.X/main.asm
                  _48loop   0x000644    program     static /Users/mreiter/Desktop/AER201/botL.X/main.asm
                  _49loop   0x000662    program     static /Users/mreiter/Desktop/AER201/botL.X/main.asm
                  _50Exit   0x000690    program     static /Users/mreiter/Desktop/AER201/botL.X/main.asm
                  _50Next   0x000684    program     static /Users/mreiter/Desktop/AER201/botL.X/main.asm
                  _51Exit   0x0006a6    program     static /Users/mreiter/Desktop/AER201/botL.X/main.asm
                  _51Next   0x00069a    program     static /Users/mreiter/Desktop/AER201/botL.X/main.asm
                  _52loop   0x0006c0    program     static /Users/mreiter/Desktop/AER201/botL.X/main.asm
                  _75loop   0x00097a    program     static /Users/mreiter/Desktop/AER201/botL.X/main.asm
                  _77loop   0x0009f0    program     static /Users/mreiter/Desktop/AER201/botL.X/main.asm
                   _8loop   0x000160    program     static /Users/mreiter/Desktop/AER201/botL.X/main.asm
                   _9loop   0x00017e    program     static /Users/mreiter/Desktop/AER201/botL.X/main.asm
                  _waitl0   0x000d86    program     static /Users/mreiter/Desktop/AER201/botL.X/i2c_common.asm
                       d2   0x000c8c    program     static /Users/mreiter/Desktop/AER201/botL.X/lcd.asm
                del_loop0   0x0007da    program     static /Users/mreiter/Desktop/AER201/botL.X/main.asm
                delay44us   0x000c70    program     static /Users/mreiter/Desktop/AER201/botL.X/lcd.asm
                 delay5ms   0x000c7c    program     static /Users/mreiter/Desktop/AER201/botL.X/lcd.asm
               displayNum   0x0005ba    program     static /Users/mreiter/Desktop/AER201/botL.X/main.asm
         i2c_common_setup   0x000c92    program     extern /Users/mreiter/Desktop/AER201/botL.X/i2c_common.asm
             lcdLongDelay   0x000c5a    program     static /Users/mreiter/Desktop/AER201/botL.X/lcd.asm
                loop200us   0x00085e    program     static /Users/mreiter/Desktop/AER201/botL.X/main.asm
                 loop50ms   0x00086c    program     static /Users/mreiter/Desktop/AER201/botL.X/main.asm
                  loop5us   0x000850    program     static /Users/mreiter/Desktop/AER201/botL.X/main.asm
                 read_rtc   0x000d26    program     extern /Users/mreiter/Desktop/AER201/botL.X/i2c_common.asm
              rtc_convert   0x000db8    program     extern /Users/mreiter/Desktop/AER201/botL.X/i2c_common.asm
                write_rtc   0x000cb0    program     extern /Users/mreiter/Desktop/AER201/botL.X/i2c_common.asm
           convert_buffer   0x000085       data     extern /Users/mreiter/Desktop/AER201/botL.X/i2c_common.asm
                 databyte   0x000081       data     extern /Users/mreiter/Desktop/AER201/botL.X/i2c_common.asm
                 datachar   0x000082       data     extern /Users/mreiter/Desktop/AER201/botL.X/i2c_common.asm
               ones_digit   0x000084       data     extern /Users/mreiter/Desktop/AER201/botL.X/i2c_common.asm
               regaddress   0x000080       data     extern /Users/mreiter/Desktop/AER201/botL.X/i2c_common.asm
               tens_digit   0x000083       data     extern /Users/mreiter/Desktop/AER201/botL.X/i2c_common.asm



                              Symbols - Sorted by Address
                     Name    Address   Location    Storage File                     
                ---------  ---------  ---------  --------- ---------                
                 ISR_HIGH   0x00001c    program     static /Users/mreiter/Desktop/AER201/botL.X/main.asm
                   _2ones   0x000052    program     static /Users/mreiter/Desktop/AER201/botL.X/main.asm
                 _2endBCD   0x000058    program     static /Users/mreiter/Desktop/AER201/botL.X/main.asm
                   _3ones   0x000084    program     static /Users/mreiter/Desktop/AER201/botL.X/main.asm
                 _3endBCD   0x00008a    program     static /Users/mreiter/Desktop/AER201/botL.X/main.asm
             END_ISR_HIGH   0x00008c    program     static /Users/mreiter/Desktop/AER201/botL.X/main.asm
                  ISR_LOW   0x000096    program     static /Users/mreiter/Desktop/AER201/botL.X/main.asm
              END_ISR_LOW   0x0000b2    program     static /Users/mreiter/Desktop/AER201/botL.X/main.asm
                     INIT   0x0000ca    program     static /Users/mreiter/Desktop/AER201/botL.X/main.asm
                   _8loop   0x000160    program     static /Users/mreiter/Desktop/AER201/botL.X/main.asm
                   _9loop   0x00017e    program     static /Users/mreiter/Desktop/AER201/botL.X/main.asm
                  _10loop   0x00018c    program     static /Users/mreiter/Desktop/AER201/botL.X/main.asm
                  STANDBY   0x000196    program     static /Users/mreiter/Desktop/AER201/botL.X/main.asm
                  _11loop   0x0001aa    program     static /Users/mreiter/Desktop/AER201/botL.X/main.asm
             HOLD_STANDBY   0x0001b4    program     static /Users/mreiter/Desktop/AER201/botL.X/main.asm
                  _12Next   0x0001c0    program     static /Users/mreiter/Desktop/AER201/botL.X/main.asm
                  _12Exit   0x0001cc    program     static /Users/mreiter/Desktop/AER201/botL.X/main.asm
                  _13Next   0x0001d6    program     static /Users/mreiter/Desktop/AER201/botL.X/main.asm
                  _13Exit   0x0001e2    program     static /Users/mreiter/Desktop/AER201/botL.X/main.asm
                  _14Next   0x0001ec    program     static /Users/mreiter/Desktop/AER201/botL.X/main.asm
                  _14Exit   0x0001f8    program     static /Users/mreiter/Desktop/AER201/botL.X/main.asm
                  _15Next   0x000202    program     static /Users/mreiter/Desktop/AER201/botL.X/main.asm
                  _15Exit   0x00020e    program     static /Users/mreiter/Desktop/AER201/botL.X/main.asm
                EXECUTION   0x000212    program     static /Users/mreiter/Desktop/AER201/botL.X/main.asm
                  _16loop   0x00022c    program     static /Users/mreiter/Desktop/AER201/botL.X/main.asm
                  _17loop   0x00024a    program     static /Users/mreiter/Desktop/AER201/botL.X/main.asm
                 HOLD_EXE   0x00025e    program     static /Users/mreiter/Desktop/AER201/botL.X/main.asm
                  _18Next   0x00026a    program     static /Users/mreiter/Desktop/AER201/botL.X/main.asm
                  _18Exit   0x000276    program     static /Users/mreiter/Desktop/AER201/botL.X/main.asm
                 EXIT_EXE   0x00027a    program     static /Users/mreiter/Desktop/AER201/botL.X/main.asm
                 SaveData   0x000284    program     static /Users/mreiter/Desktop/AER201/botL.X/main.asm
                  _19loop   0x000298    program     static /Users/mreiter/Desktop/AER201/botL.X/main.asm
                ShiftLoop   0x0002b6    program     static /Users/mreiter/Desktop/AER201/botL.X/main.asm
             _.org_2_02DC   0x0002dc    program     static /Users/mreiter/Desktop/AER201/botL.X/main.asm
             _.org_2_02F4   0x0002f4    program     static /Users/mreiter/Desktop/AER201/botL.X/main.asm
             _.org_2_032E   0x00032e    program     static /Users/mreiter/Desktop/AER201/botL.X/main.asm
             _.org_2_0346   0x000346    program     static /Users/mreiter/Desktop/AER201/botL.X/main.asm
             _.org_2_035C   0x00035c    program     static /Users/mreiter/Desktop/AER201/botL.X/main.asm
             _.org_2_0374   0x000374    program     static /Users/mreiter/Desktop/AER201/botL.X/main.asm
                      LOG   0x000380    program     static /Users/mreiter/Desktop/AER201/botL.X/main.asm
                  _24loop   0x000394    program     static /Users/mreiter/Desktop/AER201/botL.X/main.asm
                 HOLD_LOG   0x0003d8    program     static /Users/mreiter/Desktop/AER201/botL.X/main.asm
                  _27Next   0x0003e4    program     static /Users/mreiter/Desktop/AER201/botL.X/main.asm
                  _27Exit   0x0003f0    program     static /Users/mreiter/Desktop/AER201/botL.X/main.asm
                  _28Next   0x0003fa    program     static /Users/mreiter/Desktop/AER201/botL.X/main.asm
                  _28Exit   0x000406    program     static /Users/mreiter/Desktop/AER201/botL.X/main.asm
                 LOG_INFO   0x00040a    program     static /Users/mreiter/Desktop/AER201/botL.X/main.asm
                  _29loop   0x00041e    program     static /Users/mreiter/Desktop/AER201/botL.X/main.asm
                  _30loop   0x00043c    program     static /Users/mreiter/Desktop/AER201/botL.X/main.asm
            HOLD_LOG_INFO   0x000446    program     static /Users/mreiter/Desktop/AER201/botL.X/main.asm
                  _31Next   0x000452    program     static /Users/mreiter/Desktop/AER201/botL.X/main.asm
                  _31Exit   0x00045e    program     static /Users/mreiter/Desktop/AER201/botL.X/main.asm
                 PERM_LOG   0x000462    program     static /Users/mreiter/Desktop/AER201/botL.X/main.asm
                  _32loop   0x000476    program     static /Users/mreiter/Desktop/AER201/botL.X/main.asm
                  _33loop   0x000494    program     static /Users/mreiter/Desktop/AER201/botL.X/main.asm
            HOLD_PERM_LOG   0x00049e    program     static /Users/mreiter/Desktop/AER201/botL.X/main.asm
                  _34Next   0x0004aa    program     static /Users/mreiter/Desktop/AER201/botL.X/main.asm
                  _34Exit   0x0004b6    program     static /Users/mreiter/Desktop/AER201/botL.X/main.asm
                  _35Next   0x0004c0    program     static /Users/mreiter/Desktop/AER201/botL.X/main.asm
                  _35Exit   0x0004cc    program     static /Users/mreiter/Desktop/AER201/botL.X/main.asm
                  _36Next   0x0004d6    program     static /Users/mreiter/Desktop/AER201/botL.X/main.asm
                  _36Exit   0x0004e2    program     static /Users/mreiter/Desktop/AER201/botL.X/main.asm
                  _37Next   0x0004ec    program     static /Users/mreiter/Desktop/AER201/botL.X/main.asm
                  _37Exit   0x0004f8    program     static /Users/mreiter/Desktop/AER201/botL.X/main.asm
                  _38Next   0x000502    program     static /Users/mreiter/Desktop/AER201/botL.X/main.asm
                  _38Exit   0x00050e    program     static /Users/mreiter/Desktop/AER201/botL.X/main.asm
                  _39Next   0x000518    program     static /Users/mreiter/Desktop/AER201/botL.X/main.asm
                  _39Exit   0x000524    program     static /Users/mreiter/Desktop/AER201/botL.X/main.asm
                  _40Next   0x00052e    program     static /Users/mreiter/Desktop/AER201/botL.X/main.asm
                  _40Exit   0x00053a    program     static /Users/mreiter/Desktop/AER201/botL.X/main.asm
                  _41Next   0x000544    program     static /Users/mreiter/Desktop/AER201/botL.X/main.asm
                  _41Exit   0x000550    program     static /Users/mreiter/Desktop/AER201/botL.X/main.asm
                  _42Next   0x00055a    program     static /Users/mreiter/Desktop/AER201/botL.X/main.asm
                  _42Exit   0x000566    program     static /Users/mreiter/Desktop/AER201/botL.X/main.asm
                  _43Next   0x000570    program     static /Users/mreiter/Desktop/AER201/botL.X/main.asm
                  _43Exit   0x00057c    program     static /Users/mreiter/Desktop/AER201/botL.X/main.asm
                     PLOG   0x000580    program     static /Users/mreiter/Desktop/AER201/botL.X/main.asm
                  _44loop   0x000594    program     static /Users/mreiter/Desktop/AER201/botL.X/main.asm
               displayNum   0x0005ba    program     static /Users/mreiter/Desktop/AER201/botL.X/main.asm
                HOLD_PLOG   0x000614    program     static /Users/mreiter/Desktop/AER201/botL.X/main.asm
                  _47Next   0x000620    program     static /Users/mreiter/Desktop/AER201/botL.X/main.asm
                  _47Exit   0x00062c    program     static /Users/mreiter/Desktop/AER201/botL.X/main.asm
                  PC_MODE   0x000630    program     static /Users/mreiter/Desktop/AER201/botL.X/main.asm
                  _48loop   0x000644    program     static /Users/mreiter/Desktop/AER201/botL.X/main.asm
                  _49loop   0x000662    program     static /Users/mreiter/Desktop/AER201/botL.X/main.asm
                  HOLD_PC   0x000678    program     static /Users/mreiter/Desktop/AER201/botL.X/main.asm
                  _50Next   0x000684    program     static /Users/mreiter/Desktop/AER201/botL.X/main.asm
                  _50Exit   0x000690    program     static /Users/mreiter/Desktop/AER201/botL.X/main.asm
                  _51Next   0x00069a    program     static /Users/mreiter/Desktop/AER201/botL.X/main.asm
                  _51Exit   0x0006a6    program     static /Users/mreiter/Desktop/AER201/botL.X/main.asm
              PC_TRANSFER   0x0006aa    program     static /Users/mreiter/Desktop/AER201/botL.X/main.asm
                  _52loop   0x0006c0    program     static /Users/mreiter/Desktop/AER201/botL.X/main.asm
                 RTC_INIT   0x0006ce    program     static /Users/mreiter/Desktop/AER201/botL.X/main.asm
                SAVE_TIME   0x0006dc    program     static /Users/mreiter/Desktop/AER201/botL.X/main.asm
              DISPLAY_RTC   0x000738    program     static /Users/mreiter/Desktop/AER201/botL.X/main.asm
                 SET_TIME   0x0007d4    program     static /Users/mreiter/Desktop/AER201/botL.X/main.asm
                del_loop0   0x0007da    program     static /Users/mreiter/Desktop/AER201/botL.X/main.asm
               INIT_USART   0x00083c    program     static /Users/mreiter/Desktop/AER201/botL.X/main.asm
                 Delay5us   0x00084c    program     static /Users/mreiter/Desktop/AER201/botL.X/main.asm
                  loop5us   0x000850    program     static /Users/mreiter/Desktop/AER201/botL.X/main.asm
               Delay200us   0x00085a    program     static /Users/mreiter/Desktop/AER201/botL.X/main.asm
                loop200us   0x00085e    program     static /Users/mreiter/Desktop/AER201/botL.X/main.asm
                Delay50ms   0x000868    program     static /Users/mreiter/Desktop/AER201/botL.X/main.asm
                 loop50ms   0x00086c    program     static /Users/mreiter/Desktop/AER201/botL.X/main.asm
                   Cycles   0x000872    program     static /Users/mreiter/Desktop/AER201/botL.X/main.asm
              WriteEE_RTC   0x00087c    program     static /Users/mreiter/Desktop/AER201/botL.X/main.asm
             _.org_2_088A   0x00088a    program     static /Users/mreiter/Desktop/AER201/botL.X/main.asm
             _.org_2_08A2   0x0008a2    program     static /Users/mreiter/Desktop/AER201/botL.X/main.asm
             _.org_2_08B8   0x0008b8    program     static /Users/mreiter/Desktop/AER201/botL.X/main.asm
             _.org_2_08D0   0x0008d0    program     static /Users/mreiter/Desktop/AER201/botL.X/main.asm
           ClearEEPROM_21   0x0008da    program     static /Users/mreiter/Desktop/AER201/botL.X/main.asm
                ClearNext   0x0008e2    program     static /Users/mreiter/Desktop/AER201/botL.X/main.asm
             _.org_2_08F0   0x0008f0    program     static /Users/mreiter/Desktop/AER201/botL.X/main.asm
             _.org_2_0908   0x000908    program     static /Users/mreiter/Desktop/AER201/botL.X/main.asm
                 READ_KEY   0x000920    program     static /Users/mreiter/Desktop/AER201/botL.X/main.asm
             _.org_2_092E   0x00092e    program     static /Users/mreiter/Desktop/AER201/botL.X/main.asm
            READ_KEY_TIME   0x000934    program     static /Users/mreiter/Desktop/AER201/botL.X/main.asm
             _.org_2_094A   0x00094a    program     static /Users/mreiter/Desktop/AER201/botL.X/main.asm
              DisplayTime   0x000950    program     static /Users/mreiter/Desktop/AER201/botL.X/main.asm
                  _75loop   0x00097a    program     static /Users/mreiter/Desktop/AER201/botL.X/main.asm
         NoSkipDispOpTime   0x00098c    program     static /Users/mreiter/Desktop/AER201/botL.X/main.asm
           SkipDispOpTime   0x0009c0    program     static /Users/mreiter/Desktop/AER201/botL.X/main.asm
                DispOpRTC   0x0009c2    program     static /Users/mreiter/Desktop/AER201/botL.X/main.asm
                  _77loop   0x0009f0    program     static /Users/mreiter/Desktop/AER201/botL.X/main.asm
          NoSkipDispOpRTC   0x000a02    program     static /Users/mreiter/Desktop/AER201/botL.X/main.asm
            SkipDispOpRTC   0x000a64    program     static /Users/mreiter/Desktop/AER201/botL.X/main.asm
         DispOpRTC_Helper   0x000a66    program     static /Users/mreiter/Desktop/AER201/botL.X/main.asm
                  Welcome   0x000aa0    program     static /Users/mreiter/Desktop/AER201/botL.X/main.asm
                     Team   0x000aa6    program     static /Users/mreiter/Desktop/AER201/botL.X/main.asm
                  StandBy   0x000ab0    program     static /Users/mreiter/Desktop/AER201/botL.X/main.asm
                     Log1   0x000ab8    program     static /Users/mreiter/Desktop/AER201/botL.X/main.asm
                     Log2   0x000abe    program     static /Users/mreiter/Desktop/AER201/botL.X/main.asm
                 LogInfo1   0x000acc    program     static /Users/mreiter/Desktop/AER201/botL.X/main.asm
                 LogInfo2   0x000ad4    program     static /Users/mreiter/Desktop/AER201/botL.X/main.asm
                 PermLog1   0x000ade    program     static /Users/mreiter/Desktop/AER201/botL.X/main.asm
                 PermLog2   0x000aee    program     static /Users/mreiter/Desktop/AER201/botL.X/main.asm
                     Exe1   0x000afa    program     static /Users/mreiter/Desktop/AER201/botL.X/main.asm
                     Exe2   0x000b06    program     static /Users/mreiter/Desktop/AER201/botL.X/main.asm
                      PC1   0x000b0e    program     static /Users/mreiter/Desktop/AER201/botL.X/main.asm
                      PC2   0x000b1c    program     static /Users/mreiter/Desktop/AER201/botL.X/main.asm
               PCTransfer   0x000b26    program     static /Users/mreiter/Desktop/AER201/botL.X/main.asm
                  Stopped   0x000b36    program     static /Users/mreiter/Desktop/AER201/botL.X/main.asm
                  Op_Time   0x000b3e    program     static /Users/mreiter/Desktop/AER201/botL.X/main.asm
                     SAVE   0x000b46    program     static /Users/mreiter/Desktop/AER201/botL.X/main.asm
                   Safety   0x000b50    program     static /Users/mreiter/Desktop/AER201/botL.X/main.asm
                   NoData   0x000b60    program     static /Users/mreiter/Desktop/AER201/botL.X/main.asm
                   PCLog1   0x000b64    program     static /Users/mreiter/Desktop/AER201/botL.X/main.asm
                  InitLCD   0x000b74    program     extern /Users/mreiter/Desktop/AER201/botL.X/lcd.asm
                   WR_INS   0x000bcc    program     extern /Users/mreiter/Desktop/AER201/botL.X/lcd.asm
                  WR_DATA   0x000be8    program     extern /Users/mreiter/Desktop/AER201/botL.X/lcd.asm
                   WrtLCD   0x000c0a    program     extern /Users/mreiter/Desktop/AER201/botL.X/lcd.asm
                   ClrLCD   0x000c20    program     extern /Users/mreiter/Desktop/AER201/botL.X/lcd.asm
                   ClkLCD   0x000c2e    program     extern /Users/mreiter/Desktop/AER201/botL.X/lcd.asm
              _.code_00C6   0x000c3a    program     static /Users/mreiter/Desktop/AER201/botL.X/lcd.asm
                   LCD_L1   0x000c40    program     extern /Users/mreiter/Desktop/AER201/botL.X/lcd.asm
                   LCD_L2   0x000c48    program     extern /Users/mreiter/Desktop/AER201/botL.X/lcd.asm
                   MovMSB   0x000c50    program     static /Users/mreiter/Desktop/AER201/botL.X/lcd.asm
             lcdLongDelay   0x000c5a    program     static /Users/mreiter/Desktop/AER201/botL.X/lcd.asm
                 LLD_LOOP   0x000c5e    program     static /Users/mreiter/Desktop/AER201/botL.X/lcd.asm
              _.code_00F0   0x000c64    program     static /Users/mreiter/Desktop/AER201/botL.X/lcd.asm
                delay44us   0x000c70    program     static /Users/mreiter/Desktop/AER201/botL.X/lcd.asm
            Delay44usLoop   0x000c74    program     static /Users/mreiter/Desktop/AER201/botL.X/lcd.asm
                 delay5ms   0x000c7c    program     static /Users/mreiter/Desktop/AER201/botL.X/lcd.asm
             Delay5msLoop   0x000c84    program     static /Users/mreiter/Desktop/AER201/botL.X/lcd.asm
                       d2   0x000c8c    program     static /Users/mreiter/Desktop/AER201/botL.X/lcd.asm
         i2c_common_setup   0x000c92    program     extern /Users/mreiter/Desktop/AER201/botL.X/i2c_common.asm
              _.code_0018   0x000caa    program     static /Users/mreiter/Desktop/AER201/botL.X/i2c_common.asm
                write_rtc   0x000cb0    program     extern /Users/mreiter/Desktop/AER201/botL.X/i2c_common.asm
              _.code_0026   0x000cb8    program     static /Users/mreiter/Desktop/AER201/botL.X/i2c_common.asm
              _.code_002E   0x000cc0    program     static /Users/mreiter/Desktop/AER201/botL.X/i2c_common.asm
              _.code_0034   0x000cc6    program     static /Users/mreiter/Desktop/AER201/botL.X/i2c_common.asm
              _.code_0042   0x000cd4    program     static /Users/mreiter/Desktop/AER201/botL.X/i2c_common.asm
              _.code_0048   0x000cda    program     static /Users/mreiter/Desktop/AER201/botL.X/i2c_common.asm
              _.code_0056   0x000ce8    program     static /Users/mreiter/Desktop/AER201/botL.X/i2c_common.asm
              _.code_005C   0x000cee    program     static /Users/mreiter/Desktop/AER201/botL.X/i2c_common.asm
                  WR_ERR1   0x000cfc    program     static /Users/mreiter/Desktop/AER201/botL.X/i2c_common.asm
                  WR_ERR2   0x000d06    program     static /Users/mreiter/Desktop/AER201/botL.X/i2c_common.asm
                  WR_ERR3   0x000d12    program     static /Users/mreiter/Desktop/AER201/botL.X/i2c_common.asm
                   WR_END   0x000d1c    program     static /Users/mreiter/Desktop/AER201/botL.X/i2c_common.asm
              _.code_008E   0x000d20    program     static /Users/mreiter/Desktop/AER201/botL.X/i2c_common.asm
                 read_rtc   0x000d26    program     extern /Users/mreiter/Desktop/AER201/botL.X/i2c_common.asm
              _.code_009C   0x000d2e    program     static /Users/mreiter/Desktop/AER201/botL.X/i2c_common.asm
              _.code_00A4   0x000d36    program     static /Users/mreiter/Desktop/AER201/botL.X/i2c_common.asm
              _.code_00AA   0x000d3c    program     static /Users/mreiter/Desktop/AER201/botL.X/i2c_common.asm
              _.code_00B8   0x000d4a    program     static /Users/mreiter/Desktop/AER201/botL.X/i2c_common.asm
              _.code_00BE   0x000d50    program     static /Users/mreiter/Desktop/AER201/botL.X/i2c_common.asm
              _.code_00CC   0x000d5e    program     static /Users/mreiter/Desktop/AER201/botL.X/i2c_common.asm
              _.code_00D4   0x000d66    program     static /Users/mreiter/Desktop/AER201/botL.X/i2c_common.asm
              _.code_00DA   0x000d6c    program     static /Users/mreiter/Desktop/AER201/botL.X/i2c_common.asm
              _.code_00E8   0x000d7a    program     static /Users/mreiter/Desktop/AER201/botL.X/i2c_common.asm
                  _waitl0   0x000d86    program     static /Users/mreiter/Desktop/AER201/botL.X/i2c_common.asm
                  RD_ERR1   0x000d90    program     static /Users/mreiter/Desktop/AER201/botL.X/i2c_common.asm
                  RD_ERR2   0x000d9a    program     static /Users/mreiter/Desktop/AER201/botL.X/i2c_common.asm
                  RD_ERR3   0x000da4    program     static /Users/mreiter/Desktop/AER201/botL.X/i2c_common.asm
                   RD_END   0x000dae    program     static /Users/mreiter/Desktop/AER201/botL.X/i2c_common.asm
              _.code_0120   0x000db2    program     static /Users/mreiter/Desktop/AER201/botL.X/i2c_common.asm
              rtc_convert   0x000db8    program     extern /Users/mreiter/Desktop/AER201/botL.X/i2c_common.asm
                CHECK_ACK   0x000dcc    program     extern /Users/mreiter/Desktop/AER201/botL.X/i2c.asm
                 I2C_temp   0x000dcc    program     static /Users/mreiter/Desktop/AER201/botL.X/i2c.asm
                I2C_ACKDT   0x000dcc    program     extern /Users/mreiter/Desktop/AER201/botL.X/i2c.asm
               CHECK_NACK   0x000dd0    program     extern /Users/mreiter/Desktop/AER201/botL.X/i2c.asm
                TEST_NACK   0x000dd4    program     static /Users/mreiter/Desktop/AER201/botL.X/i2c.asm
          I2C_Master_INIT   0x000ddc    program     extern /Users/mreiter/Desktop/AER201/botL.X/i2c.asm
                     WAIT   0x000dee    program     static /Users/mreiter/Desktop/AER201/botL.X/i2c.asm
          I2C_Master_WAIT   0x000dee    program     extern /Users/mreiter/Desktop/AER201/botL.X/i2c.asm
         I2C_Master_START   0x000dfe    program     extern /Users/mreiter/Desktop/AER201/botL.X/i2c.asm
        I2C_Master_RSTART   0x000e06    program     extern /Users/mreiter/Desktop/AER201/botL.X/i2c.asm
          I2C_Master_STOP   0x000e0e    program     extern /Users/mreiter/Desktop/AER201/botL.X/i2c.asm
         I2C_Master_WRITE   0x000e16    program     extern /Users/mreiter/Desktop/AER201/botL.X/i2c.asm
                  HOLD_UP   0x000e1c    program     static /Users/mreiter/Desktop/AER201/botL.X/i2c.asm
          I2C_Master_READ   0x000e24    program     extern /Users/mreiter/Desktop/AER201/botL.X/i2c.asm
                     LOOP   0x000e2a    program     static /Users/mreiter/Desktop/AER201/botL.X/i2c.asm
           I2C_Master_ACK   0x000e32    program     extern /Users/mreiter/Desktop/AER201/botL.X/i2c.asm
                 TEST_ACK   0x000e36    program     static /Users/mreiter/Desktop/AER201/botL.X/i2c.asm
               regaddress   0x000080       data     extern /Users/mreiter/Desktop/AER201/botL.X/i2c_common.asm
                 databyte   0x000081       data     extern /Users/mreiter/Desktop/AER201/botL.X/i2c_common.asm
                 datachar   0x000082       data     extern /Users/mreiter/Desktop/AER201/botL.X/i2c_common.asm
               tens_digit   0x000083       data     extern /Users/mreiter/Desktop/AER201/botL.X/i2c_common.asm
               ones_digit   0x000084       data     extern /Users/mreiter/Desktop/AER201/botL.X/i2c_common.asm
           convert_buffer   0x000085       data     extern /Users/mreiter/Desktop/AER201/botL.X/i2c_common.asm


